; ModuleID = '/home/vkchcp0030/Documents/learn_hls/hls_stream/hls_stream/proj_hls_stream/solution1/.autopilot/db/a.o.3.bc'
target datalayout = "e-p:64:64:64-i1:8:8-i8:8:8-i16:16:16-i32:32:32-i64:64:64-f32:32:32-f64:64:64-v64:64:64-v128:128:128-a0:0:64-s0:64:64-f80:128:128-n8:16:32:64-S128"
target triple = "x86_64-unknown-linux-gnu"

@strm_len_channel2_st = internal unnamed_addr constant [18 x i8] c"strm_len_channel2\00" ; [#uses=1 type=[18 x i8]*]
@strm_len_channel_str = internal unnamed_addr constant [17 x i8] c"strm_len_channel\00" ; [#uses=1 type=[17 x i8]*]
@llvm_global_ctors_1 = appending global [1 x void ()*] [void ()* @_GLOBAL__I_a] ; [#uses=0 type=[1 x void ()*]*]
@llvm_global_ctors_0 = appending global [1 x i32] [i32 65535] ; [#uses=0 type=[1 x i32]*]
@dwordstrm_out_OC_V_s = internal unnamed_addr constant [16 x i8] c"dwordstrm_out.V\00" ; [#uses=1 type=[16 x i8]*]
@dwordstrm_in_OC_V_st = internal unnamed_addr constant [15 x i8] c"dwordstrm_in.V\00" ; [#uses=1 type=[15 x i8]*]
@bytestrm_dwordproc_s = internal unnamed_addr constant [19 x i8] c"bytestrm_dwordproc\00" ; [#uses=1 type=[19 x i8]*]
@bytes_out_len_OC_loc = internal unnamed_addr constant [26 x i8] c"bytes_out_len.loc_channel\00" ; [#uses=1 type=[26 x i8]*]
@ap_fifo_str = internal unnamed_addr constant [8 x i8] c"ap_fifo\00" ; [#uses=15 type=[8 x i8]*]
@STREAM_LOOP_DECIMATE = internal unnamed_addr constant [26 x i8] c"STREAM_LOOP_DECIMATE_LOOP\00" ; [#uses=1 type=[26 x i8]*]
@p_str9 = internal unnamed_addr constant [1 x i8] zeroinitializer ; [#uses=3 type=[1 x i8]*]
@p_str84 = internal unnamed_addr constant [1 x i8] zeroinitializer ; [#uses=1 type=[1 x i8]*]
@p_str83 = internal unnamed_addr constant [1 x i8] zeroinitializer ; [#uses=1 type=[1 x i8]*]
@p_str82 = internal unnamed_addr constant [1 x i8] zeroinitializer ; [#uses=1 type=[1 x i8]*]
@p_str81 = internal unnamed_addr constant [1 x i8] zeroinitializer ; [#uses=1 type=[1 x i8]*]
@p_str80 = internal unnamed_addr constant [1 x i8] zeroinitializer ; [#uses=1 type=[1 x i8]*]
@p_str8 = internal unnamed_addr constant [1 x i8] zeroinitializer ; [#uses=3 type=[1 x i8]*]
@p_str79 = internal unnamed_addr constant [1 x i8] zeroinitializer ; [#uses=1 type=[1 x i8]*]
@p_str77 = internal unnamed_addr constant [1 x i8] zeroinitializer ; [#uses=1 type=[1 x i8]*]
@p_str76 = internal unnamed_addr constant [1 x i8] zeroinitializer ; [#uses=1 type=[1 x i8]*]
@p_str75 = internal unnamed_addr constant [1 x i8] zeroinitializer ; [#uses=1 type=[1 x i8]*]
@p_str74 = internal unnamed_addr constant [1 x i8] zeroinitializer ; [#uses=1 type=[1 x i8]*]
@p_str73 = internal unnamed_addr constant [1 x i8] zeroinitializer ; [#uses=1 type=[1 x i8]*]
@p_str72 = internal unnamed_addr constant [1 x i8] zeroinitializer ; [#uses=1 type=[1 x i8]*]
@p_str70 = internal unnamed_addr constant [1 x i8] zeroinitializer ; [#uses=1 type=[1 x i8]*]
@p_str7 = internal unnamed_addr constant [1 x i8] zeroinitializer ; [#uses=2 type=[1 x i8]*]
@p_str69 = internal unnamed_addr constant [1 x i8] zeroinitializer ; [#uses=1 type=[1 x i8]*]
@p_str68 = internal unnamed_addr constant [1 x i8] zeroinitializer ; [#uses=1 type=[1 x i8]*]
@p_str67 = internal unnamed_addr constant [1 x i8] zeroinitializer ; [#uses=1 type=[1 x i8]*]
@p_str66 = internal unnamed_addr constant [1 x i8] zeroinitializer ; [#uses=1 type=[1 x i8]*]
@p_str65 = internal unnamed_addr constant [1 x i8] zeroinitializer ; [#uses=1 type=[1 x i8]*]
@p_str64 = internal unnamed_addr constant [1 x i8] zeroinitializer ; [#uses=2 type=[1 x i8]*]
@p_str63 = internal unnamed_addr constant [1 x i8] zeroinitializer ; [#uses=1 type=[1 x i8]*]
@p_str62 = internal unnamed_addr constant [1 x i8] zeroinitializer ; [#uses=1 type=[1 x i8]*]
@p_str61 = internal unnamed_addr constant [1 x i8] zeroinitializer ; [#uses=1 type=[1 x i8]*]
@p_str60 = internal unnamed_addr constant [1 x i8] zeroinitializer ; [#uses=1 type=[1 x i8]*]
@p_str6 = private unnamed_addr constant [14 x i8] c"DECIMATE_LOOP\00", align 1 ; [#uses=3 type=[14 x i8]*]
@p_str59 = internal unnamed_addr constant [1 x i8] zeroinitializer ; [#uses=1 type=[1 x i8]*]
@p_str58 = internal unnamed_addr constant [1 x i8] zeroinitializer ; [#uses=1 type=[1 x i8]*]
@p_str57 = internal unnamed_addr constant [1 x i8] zeroinitializer ; [#uses=1 type=[1 x i8]*]
@p_str56 = internal unnamed_addr constant [1 x i8] zeroinitializer ; [#uses=1 type=[1 x i8]*]
@p_str55 = internal unnamed_addr constant [1 x i8] zeroinitializer ; [#uses=1 type=[1 x i8]*]
@p_str54 = internal unnamed_addr constant [1 x i8] zeroinitializer ; [#uses=1 type=[1 x i8]*]
@p_str53 = internal unnamed_addr constant [1 x i8] zeroinitializer ; [#uses=1 type=[1 x i8]*]
@p_str52 = internal unnamed_addr constant [1 x i8] zeroinitializer ; [#uses=1 type=[1 x i8]*]
@p_str50 = internal unnamed_addr constant [1 x i8] zeroinitializer ; [#uses=1 type=[1 x i8]*]
@p_str49 = internal unnamed_addr constant [1 x i8] zeroinitializer ; [#uses=1 type=[1 x i8]*]
@p_str48 = internal unnamed_addr constant [1 x i8] zeroinitializer ; [#uses=1 type=[1 x i8]*]
@p_str47 = internal unnamed_addr constant [1 x i8] zeroinitializer ; [#uses=1 type=[1 x i8]*]
@p_str46 = internal unnamed_addr constant [1 x i8] zeroinitializer ; [#uses=1 type=[1 x i8]*]
@p_str45 = internal unnamed_addr constant [1 x i8] zeroinitializer ; [#uses=1 type=[1 x i8]*]
@p_str44 = internal unnamed_addr constant [1 x i8] zeroinitializer ; [#uses=2 type=[1 x i8]*]
@p_str43 = internal unnamed_addr constant [1 x i8] zeroinitializer ; [#uses=1 type=[1 x i8]*]
@p_str42 = internal unnamed_addr constant [1 x i8] zeroinitializer ; [#uses=1 type=[1 x i8]*]
@p_str41 = internal unnamed_addr constant [1 x i8] zeroinitializer ; [#uses=1 type=[1 x i8]*]
@p_str40 = internal unnamed_addr constant [1 x i8] zeroinitializer ; [#uses=1 type=[1 x i8]*]
@p_str4 = private unnamed_addr constant [17 x i8] c"BYTES2WORDS_LOOP\00", align 1 ; [#uses=3 type=[17 x i8]*]
@p_str39 = internal unnamed_addr constant [1 x i8] zeroinitializer ; [#uses=1 type=[1 x i8]*]
@p_str38 = internal unnamed_addr constant [1 x i8] zeroinitializer ; [#uses=1 type=[1 x i8]*]
@p_str37 = internal unnamed_addr constant [1 x i8] zeroinitializer ; [#uses=2 type=[1 x i8]*]
@p_str36 = internal unnamed_addr constant [1 x i8] zeroinitializer ; [#uses=1 type=[1 x i8]*]
@p_str35 = internal unnamed_addr constant [1 x i8] zeroinitializer ; [#uses=1 type=[1 x i8]*]
@p_str34 = internal unnamed_addr constant [1 x i8] zeroinitializer ; [#uses=1 type=[1 x i8]*]
@p_str33 = internal unnamed_addr constant [1 x i8] zeroinitializer ; [#uses=1 type=[1 x i8]*]
@p_str32 = internal unnamed_addr constant [1 x i8] zeroinitializer ; [#uses=1 type=[1 x i8]*]
@p_str31 = internal unnamed_addr constant [1 x i8] zeroinitializer ; [#uses=1 type=[1 x i8]*]
@p_str30 = internal unnamed_addr constant [1 x i8] zeroinitializer ; [#uses=1 type=[1 x i8]*]
@p_str3 = private unnamed_addr constant [17 x i8] c"WORDS2BYTES_LOOP\00", align 1 ; [#uses=3 type=[17 x i8]*]
@p_str29 = internal unnamed_addr constant [1 x i8] zeroinitializer ; [#uses=1 type=[1 x i8]*]
@p_str28 = internal unnamed_addr constant [1 x i8] zeroinitializer ; [#uses=1 type=[1 x i8]*]
@p_str27 = internal unnamed_addr constant [1 x i8] zeroinitializer ; [#uses=1 type=[1 x i8]*]
@p_str26 = internal unnamed_addr constant [1 x i8] zeroinitializer ; [#uses=1 type=[1 x i8]*]
@p_str25 = internal unnamed_addr constant [1 x i8] zeroinitializer ; [#uses=1 type=[1 x i8]*]
@p_str20 = internal unnamed_addr constant [1 x i8] zeroinitializer ; [#uses=3 type=[1 x i8]*]
@p_str2 = private unnamed_addr constant [1 x i8] zeroinitializer, align 1 ; [#uses=34 type=[1 x i8]*]
@p_str19 = internal unnamed_addr constant [1 x i8] zeroinitializer ; [#uses=3 type=[1 x i8]*]
@p_str18 = internal unnamed_addr constant [1 x i8] zeroinitializer ; [#uses=3 type=[1 x i8]*]
@p_str17 = internal unnamed_addr constant [1 x i8] zeroinitializer ; [#uses=3 type=[1 x i8]*]
@p_str16 = internal unnamed_addr constant [1 x i8] zeroinitializer ; [#uses=3 type=[1 x i8]*]
@p_str15 = internal unnamed_addr constant [1 x i8] zeroinitializer ; [#uses=3 type=[1 x i8]*]
@p_str14 = internal unnamed_addr constant [1 x i8] zeroinitializer ; [#uses=2 type=[1 x i8]*]
@p_str13 = internal unnamed_addr constant [1 x i8] zeroinitializer ; [#uses=3 type=[1 x i8]*]
@p_str12 = internal unnamed_addr constant [1 x i8] zeroinitializer ; [#uses=3 type=[1 x i8]*]
@p_str11 = internal unnamed_addr constant [1 x i8] zeroinitializer ; [#uses=3 type=[1 x i8]*]
@p_str10 = internal unnamed_addr constant [1 x i8] zeroinitializer ; [#uses=3 type=[1 x i8]*]
@p_str1 = private unnamed_addr constant [5 x i8] c"both\00", align 1 ; [#uses=6 type=[5 x i8]*]
@p_str = private unnamed_addr constant [5 x i8] c"axis\00", align 1 ; [#uses=6 type=[5 x i8]*]

; [#uses=1]
define internal fastcc void @strm_words2bytes(i8* %bytes_out_V, i32* %words_in_V, i14* nocapture %bytes_out_len_loc) {
entry:
  %p_0_i_i = alloca i24                           ; [#uses=2 type=i24*]
  call void (...)* @_ssdm_op_SpecInterface(i32* %words_in_V, [8 x i8]* @ap_fifo_str, i32 0, i32 0, [1 x i8]* @p_str15, i32 0, i32 0, [1 x i8]* @p_str16, [1 x i8]* @p_str17, [1 x i8]* @p_str18, i32 2, i32 2, i32 16, i32 16, [1 x i8]* @p_str19, [1 x i8]* @p_str20)
  call void (...)* @_ssdm_op_SpecInterface(i8* %bytes_out_V, [5 x i8]* @p_str, i32 1, i32 1, [5 x i8]* @p_str1, i32 0, i32 0, [1 x i8]* @p_str2, [1 x i8]* @p_str2, [1 x i8]* @p_str2, i32 0, i32 0, i32 0, i32 0, [1 x i8]* @p_str2, [1 x i8]* @p_str2) nounwind
  call void (...)* @_ssdm_op_SpecInterface(i14* %bytes_out_len_loc, [8 x i8]* @ap_fifo_str, i32 0, i32 0, [1 x i8]* @p_str79, i32 0, i32 0, [1 x i8]* @p_str80, [1 x i8]* @p_str81, [1 x i8]* @p_str82, i32 2, i32 2, i32 16, i32 16, [1 x i8]* @p_str83, [1 x i8]* @p_str84)
  %bytes_out_len_loc_re = call i14 @_ssdm_op_Read.ap_fifo.i14P(i14* %bytes_out_len_loc) ; [#uses=1 type=i14]
  call void (...)* @_ssdm_op_SpecInterface(i8* %bytes_out_V, [5 x i8]* @p_str, i32 1, i32 1, [5 x i8]* @p_str1, i32 0, i32 0, [1 x i8]* @p_str2, [1 x i8]* @p_str2, [1 x i8]* @p_str2, i32 0, i32 0, i32 0, i32 0, [1 x i8]* @p_str2, [1 x i8]* @p_str2) nounwind
  call void @llvm.dbg.value(metadata !{i8* %bytes_out_V}, i64 0, metadata !81), !dbg !255 ; [debug line = 134:29@129:4] [debug variable = bytes_out.V]
  call void @llvm.dbg.value(metadata !{i32* %words_in_V}, i64 0, metadata !256), !dbg !261 ; [debug line = 135:23@129:4] [debug variable = words_in.V]
  call void @llvm.dbg.value(metadata !{i14 %bytes_out_len_loc_re}, i64 0, metadata !262), !dbg !263 ; [debug line = 136:16@129:4] [debug variable = bytestrm_len]
  %tmp_cast_i_i = zext i14 %bytes_out_len_loc_re to i17, !dbg !264 ; [#uses=1 type=i17] [debug line = 143:18@129:4]
  br label %0, !dbg !264                          ; [debug line = 143:18@129:4]

; <label>:0                                       ; preds = %_ZrSILi32ELb0EER11ap_int_baseIXT_EXT0_EXleT_Li64EEES2_i.exit.i.i, %entry
  %i_i_i = phi i16 [ 0, %entry ], [ %i, %_ZrSILi32ELb0EER11ap_int_baseIXT_EXT0_EXleT_Li64EEES2_i.exit.i.i ] ; [#uses=3 type=i16]
  %p_0_i_i_load = load i24* %p_0_i_i, !dbg !264   ; [#uses=1 type=i24] [debug line = 143:18@129:4]
  %p_0_cast_i_i = zext i24 %p_0_i_i_load to i32, !dbg !264 ; [#uses=1 type=i32] [debug line = 143:18@129:4]
  %tmp = trunc i16 %i_i_i to i2, !dbg !264        ; [#uses=1 type=i2] [debug line = 143:18@129:4]
  %i_cast_i_i = zext i16 %i_i_i to i17, !dbg !264 ; [#uses=1 type=i17] [debug line = 143:18@129:4]
  %exitcond_i_i = icmp eq i17 %i_cast_i_i, %tmp_cast_i_i, !dbg !264 ; [#uses=1 type=i1] [debug line = 143:18@129:4]
  %i = add i16 1, %i_i_i, !dbg !267               ; [#uses=1 type=i16] [debug line = 143:43@129:4]
  br i1 %exitcond_i_i, label %.exit, label %1, !dbg !264 ; [debug line = 143:18@129:4]

; <label>:1                                       ; preds = %0
  call void (...)* @_ssdm_op_SpecLoopName([17 x i8]* @p_str3) nounwind, !dbg !268 ; [debug line = 143:49@129:4]
  %tmp_5_i_i = call i32 (...)* @_ssdm_op_SpecRegionBegin([17 x i8]* @p_str3), !dbg !268 ; [#uses=1 type=i32] [debug line = 143:49@129:4]
  call void (...)* @_ssdm_op_SpecLoopTripCount(i32 0, i32 372, i32 186, [1 x i8]* @p_str2) nounwind, !dbg !270 ; [debug line = 144:1@129:4]
  %tmp_2_i_i = icmp eq i2 %tmp, 0, !dbg !271      ; [#uses=1 type=i1] [debug line = 145:2@129:4]
  br i1 %tmp_2_i_i, label %2, label %_ZrSILi32ELb0EER11ap_int_baseIXT_EXT0_EXleT_Li64EEES2_i.exit.i.i, !dbg !271 ; [debug line = 145:2@129:4]

; <label>:2                                       ; preds = %1
  call void @llvm.dbg.value(metadata !{i32* %words_in_V}, i64 0, metadata !272), !dbg !279 ; [debug line = 123:48@146:10@129:4] [debug variable = stream<int>.V]
  %tmp_4 = call i32 @_ssdm_op_Read.ap_fifo.volatile.i32P(i32* %words_in_V), !dbg !280 ; [#uses=1 type=i32] [debug line = 125:9@146:10@129:4]
  call void @llvm.dbg.value(metadata !{i32 %tmp_4}, i64 0, metadata !282), !dbg !280 ; [debug line = 125:9@146:10@129:4] [debug variable = tmp]
  call void @llvm.dbg.value(metadata !{i32 %tmp_4}, i64 0, metadata !283), !dbg !284 ; [debug line = 126:9@146:10@129:4] [debug variable = inval]
  call void @llvm.dbg.value(metadata !{i32 %tmp_4}, i64 0, metadata !285), !dbg !1593 ; [debug line = 252:55@147:10@129:4] [debug variable = val]
  call void @llvm.dbg.value(metadata !{i32 %tmp_4}, i64 0, metadata !1594), !dbg !1597 ; [debug line = 252:55@252:77@147:10@129:4] [debug variable = val]
  call void @llvm.dbg.value(metadata !{i32 %tmp_4}, i64 0, metadata !1598), !dbg !1606 ; [debug line = 280:10@147:10@129:4] [debug variable = tmpword.V]
  br label %_ZrSILi32ELb0EER11ap_int_baseIXT_EXT0_EXleT_Li64EEES2_i.exit.i.i, !dbg !1609 ; [debug line = 148:7@129:4]

_ZrSILi32ELb0EER11ap_int_baseIXT_EXT0_EXleT_Li64EEES2_i.exit.i.i: ; preds = %2, %1
  %p_0_1_i_i = phi i32 [ %tmp_4, %2 ], [ %p_0_cast_i_i, %1 ] ; [#uses=2 type=i32]
  %tmpbyte = trunc i32 %p_0_1_i_i to i8, !dbg !1610 ; [#uses=1 type=i8] [debug line = 150:28@129:4]
  call void @llvm.dbg.value(metadata !{i8 %tmpbyte}, i64 0, metadata !1612), !dbg !1610 ; [debug line = 150:28@129:4] [debug variable = tmpbyte]
  %tmpword_V_1_cast_i_i = call i24 @_ssdm_op_PartSelect.i24.i32.i32.i32(i32 %p_0_1_i_i, i32 8, i32 31), !dbg !1614 ; [#uses=1 type=i24] [debug line = 1961:21@1957:16@3540:0@151:10@129:4]
  call void @llvm.dbg.value(metadata !{i8* %bytes_out_V}, i64 0, metadata !1626), !dbg !1632 ; [debug line = 144:48@156:7@129:4] [debug variable = stream<unsigned char>.V]
  call void @llvm.dbg.value(metadata !{i8 %tmpbyte}, i64 0, metadata !1633), !dbg !1635 ; [debug line = 145:31@156:7@129:4] [debug variable = tmp]
  call void @llvm.dbg.value(metadata !{i8 %tmpbyte}, i64 0, metadata !1636), !dbg !1635 ; [debug line = 145:31@156:7@129:4] [debug variable = tmp]
  call void @_ssdm_op_Write.axis.volatile.i8P(i8* %bytes_out_V, i8 %tmpbyte), !dbg !1637 ; [debug line = 146:9@156:7@129:4]
  %empty = call i32 (...)* @_ssdm_op_SpecRegionEnd([17 x i8]* @p_str3, i32 %tmp_5_i_i), !dbg !1638 ; [#uses=0 type=i32] [debug line = 157:4@129:4]
  call void @llvm.dbg.value(metadata !{i16 %i}, i64 0, metadata !1639), !dbg !267 ; [debug line = 143:43@129:4] [debug variable = i]
  store i24 %tmpword_V_1_cast_i_i, i24* %p_0_i_i
  br label %0, !dbg !267                          ; [debug line = 143:43@129:4]

.exit:                                            ; preds = %0
  ret void
}

; [#uses=1]
define internal fastcc void @strm_bytes2words(i32* %words_out_V, i8* %bytes_in_V, i16* nocapture %bytestrm_len) {
entry:
  call void (...)* @_ssdm_op_SpecInterface(i32* %words_out_V, [8 x i8]* @ap_fifo_str, i32 0, i32 0, [1 x i8]* @p_str8, i32 0, i32 0, [1 x i8]* @p_str9, [1 x i8]* @p_str10, [1 x i8]* @p_str11, i32 2, i32 2, i32 16, i32 16, [1 x i8]* @p_str12, [1 x i8]* @p_str13)
  call void (...)* @_ssdm_op_SpecInterface(i8* %bytes_in_V, [5 x i8]* @p_str, i32 1, i32 1, [5 x i8]* @p_str1, i32 0, i32 0, [1 x i8]* @p_str2, [1 x i8]* @p_str2, [1 x i8]* @p_str2, i32 0, i32 0, i32 0, i32 0, [1 x i8]* @p_str2, [1 x i8]* @p_str2) nounwind
  call void (...)* @_ssdm_op_SpecInterface(i16* %bytestrm_len, [8 x i8]* @ap_fifo_str, i32 0, i32 0, [1 x i8]* @p_str72, i32 0, i32 0, [1 x i8]* @p_str73, [1 x i8]* @p_str74, [1 x i8]* @p_str75, i32 2, i32 2, i32 16, i32 16, [1 x i8]* @p_str76, [1 x i8]* @p_str77)
  %bytestrm_len_read = call i16 @_ssdm_op_Read.ap_fifo.i16P(i16* %bytestrm_len) ; [#uses=1 type=i16]
  call void (...)* @_ssdm_op_SpecInterface(i8* %bytes_in_V, [5 x i8]* @p_str, i32 1, i32 1, [5 x i8]* @p_str1, i32 0, i32 0, [1 x i8]* @p_str2, [1 x i8]* @p_str2, [1 x i8]* @p_str2, i32 0, i32 0, i32 0, i32 0, [1 x i8]* @p_str2, [1 x i8]* @p_str2) nounwind
  call void @llvm.dbg.value(metadata !{i32* %words_out_V}, i64 0, metadata !1640), !dbg !1645 ; [debug line = 108:23] [debug variable = words_out.V]
  call void @llvm.dbg.value(metadata !{i8* %bytes_in_V}, i64 0, metadata !1646), !dbg !1648 ; [debug line = 109:29] [debug variable = bytes_in.V]
  call void @llvm.dbg.value(metadata !{i16 %bytestrm_len_read}, i64 0, metadata !1649), !dbg !1650 ; [debug line = 110:16] [debug variable = bytestrm_len]
  br label %0, !dbg !1651                         ; [debug line = 116:18]

; <label>:0                                       ; preds = %_ZrsILi32ELb0EE11ap_int_baseIXT_EXT0_EXleT_Li64EEERKS1_i.exit._crit_edge.i, %entry
  %r_V = phi i24 [ 0, %entry ], [ %phitmp_cast_i, %_ZrsILi32ELb0EE11ap_int_baseIXT_EXT0_EXleT_Li64EEERKS1_i.exit._crit_edge.i ] ; [#uses=2 type=i24]
  %i_i = phi i16 [ 0, %entry ], [ %i, %_ZrsILi32ELb0EE11ap_int_baseIXT_EXT0_EXleT_Li64EEERKS1_i.exit._crit_edge.i ] ; [#uses=3 type=i16]
  %tmp = trunc i16 %i_i to i2, !dbg !1651         ; [#uses=1 type=i2] [debug line = 116:18]
  %exitcond_i = icmp eq i16 %i_i, %bytestrm_len_read, !dbg !1651 ; [#uses=1 type=i1] [debug line = 116:18]
  %i = add i16 1, %i_i, !dbg !1654                ; [#uses=1 type=i16] [debug line = 116:43]
  br i1 %exitcond_i, label %.exit, label %_ZrsILi32ELb0EE11ap_int_baseIXT_EXT0_EXleT_Li64EEERKS1_i.exit.i, !dbg !1651 ; [debug line = 116:18]

_ZrsILi32ELb0EE11ap_int_baseIXT_EXT0_EXleT_Li64EEERKS1_i.exit.i: ; preds = %0
  call void (...)* @_ssdm_op_SpecLoopName([17 x i8]* @p_str4) nounwind, !dbg !1655 ; [debug line = 116:49]
  %tmp_8_i = call i32 (...)* @_ssdm_op_SpecRegionBegin([17 x i8]* @p_str4), !dbg !1655 ; [#uses=1 type=i32] [debug line = 116:49]
  call void (...)* @_ssdm_op_SpecLoopTripCount(i32 0, i32 1488, i32 744, [1 x i8]* @p_str2) nounwind, !dbg !1657 ; [debug line = 117:1]
  call void @llvm.dbg.value(metadata !{i8* %bytes_in_V}, i64 0, metadata !1658), !dbg !1661 ; [debug line = 123:48@118:2] [debug variable = stream<unsigned char>.V]
  %tmp_8 = call i8 @_ssdm_op_Read.axis.volatile.i8P(i8* %bytes_in_V), !dbg !1663 ; [#uses=2 type=i8] [debug line = 125:9@118:2]
  call void @llvm.dbg.value(metadata !{i8 %tmp_8}, i64 0, metadata !1665), !dbg !1663 ; [debug line = 125:9@118:2] [debug variable = tmp]
  call void @llvm.dbg.value(metadata !{i8 %tmp_8}, i64 0, metadata !1666), !dbg !1667 ; [debug line = 126:9@118:2] [debug variable = tmpbyte]
  call void @llvm.dbg.value(metadata !{i24 %r_V}, i64 0, metadata !1668), !dbg !1674 ; [debug line = 3580:0@120:21] [debug variable = r.V]
  call void @llvm.dbg.value(metadata !{i8 %tmp_8}, i64 0, metadata !1677), !dbg !1679 ; [debug line = 249:65@121:14] [debug variable = val]
  call void @llvm.dbg.value(metadata !{i8 %tmp_8}, i64 0, metadata !1681), !dbg !1683 ; [debug line = 249:65@249:87@121:14] [debug variable = val]
  call void @llvm.dbg.value(metadata !{i24 %r_V}, i64 0, metadata !1685), !dbg !1694 ; [debug line = 3378:0@121:14] [debug variable = lhs.V]
  %r_V_1 = call i32 @_ssdm_op_BitConcatenate.i32.i8.i24(i8 %tmp_8, i24 %r_V), !dbg !1694 ; [#uses=1 type=i32] [debug line = 3378:0@121:14]
  call void @llvm.dbg.value(metadata !{i32 %r_V_1}, i64 0, metadata !1695), !dbg !1694 ; [debug line = 3378:0@121:14] [debug variable = r.V]
  call void @llvm.dbg.value(metadata !{i32 %r_V_1}, i64 0, metadata !1698), !dbg !1700 ; [debug line = 280:10@121:14] [debug variable = tmpword.V]
  %tmp_1_i = icmp eq i2 %tmp, -1, !dbg !1701      ; [#uses=1 type=i1] [debug line = 125:7]
  br i1 %tmp_1_i, label %1, label %_ZrsILi32ELb0EE11ap_int_baseIXT_EXT0_EXleT_Li64EEERKS1_i.exit._crit_edge.i, !dbg !1701 ; [debug line = 125:7]

; <label>:1                                       ; preds = %_ZrsILi32ELb0EE11ap_int_baseIXT_EXT0_EXleT_Li64EEERKS1_i.exit.i
  call void @llvm.dbg.value(metadata !{i32* %words_out_V}, i64 0, metadata !1702), !dbg !1705 ; [debug line = 144:48@126:28] [debug variable = stream<int>.V]
  call void @llvm.dbg.value(metadata !{i32 %r_V_1}, i64 0, metadata !1707), !dbg !1709 ; [debug line = 145:31@126:28] [debug variable = tmp]
  call void @_ssdm_op_Write.ap_fifo.volatile.i32P(i32* %words_out_V, i32 %r_V_1), !dbg !1710 ; [debug line = 146:9@126:28]
  br label %_ZrsILi32ELb0EE11ap_int_baseIXT_EXT0_EXleT_Li64EEERKS1_i.exit._crit_edge.i, !dbg !1706 ; [debug line = 126:28]

_ZrsILi32ELb0EE11ap_int_baseIXT_EXT0_EXleT_Li64EEERKS1_i.exit._crit_edge.i: ; preds = %1, %_ZrsILi32ELb0EE11ap_int_baseIXT_EXT0_EXleT_Li64EEERKS1_i.exit.i
  %empty = call i32 (...)* @_ssdm_op_SpecRegionEnd([17 x i8]* @p_str4, i32 %tmp_8_i), !dbg !1711 ; [#uses=0 type=i32] [debug line = 127:4]
  call void @llvm.dbg.value(metadata !{i16 %i}, i64 0, metadata !1712), !dbg !1654 ; [debug line = 116:43] [debug variable = i]
  %tmp_5 = call i16 @_ssdm_op_PartSelect.i16.i24.i32.i32(i24 %r_V, i32 8, i32 23) ; [#uses=1 type=i16]
  %phitmp_cast_i = call i24 @_ssdm_op_BitConcatenate.i24.i8.i16(i8 %tmp_8, i16 %tmp_5), !dbg !1654 ; [#uses=1 type=i24] [debug line = 116:43]
  br label %0, !dbg !1654                         ; [debug line = 116:43]

.exit:                                            ; preds = %0
  ret void
}

; [#uses=1]
declare i34 @llvm.part.select.i34(i34, i32, i32) nounwind readnone

; [#uses=1]
declare i32 @llvm.part.select.i32(i32, i32, i32) nounwind readnone

; [#uses=1]
declare i24 @llvm.part.select.i24(i24, i32, i32) nounwind readnone

; [#uses=2]
declare i16 @llvm.part.select.i16(i16, i32, i32) nounwind readnone

; [#uses=1]
declare i14 @llvm.part.select.i14(i14, i32, i32) nounwind readnone

; [#uses=47]
declare void @llvm.dbg.value(metadata, i64, metadata) nounwind readnone

; [#uses=2]
declare void @llvm.dbg.declare(metadata, metadata) nounwind readnone

; [#uses=1]
define internal fastcc void @decimate_strm(i32* %strm_out_V, i32* %strm_in_V, i14 %strm_len) {
entry:
  call void (...)* @_ssdm_op_SpecInterface(i32* %strm_out_V, [8 x i8]* @ap_fifo_str, i32 0, i32 0, [1 x i8]* @p_str15, i32 0, i32 0, [1 x i8]* @p_str16, [1 x i8]* @p_str17, [1 x i8]* @p_str18, i32 2, i32 2, i32 16, i32 16, [1 x i8]* @p_str19, [1 x i8]* @p_str20)
  call void (...)* @_ssdm_op_SpecInterface(i32* %strm_in_V, [8 x i8]* @ap_fifo_str, i32 0, i32 0, [1 x i8]* @p_str8, i32 0, i32 0, [1 x i8]* @p_str9, [1 x i8]* @p_str10, [1 x i8]* @p_str11, i32 2, i32 2, i32 16, i32 16, [1 x i8]* @p_str12, [1 x i8]* @p_str13)
  %strm_len_read = call i14 @_ssdm_op_Read.ap_auto.i14(i14 %strm_len) ; [#uses=1 type=i14]
  call void @llvm.dbg.value(metadata !{i14 %strm_len_read}, i64 0, metadata !1713), !dbg !1766 ; [debug line = 137:16@127:4] [debug variable = strm_len]
  call void @llvm.dbg.value(metadata !{i32* %strm_out_V}, i64 0, metadata !1767), !dbg !1769 ; [debug line = 135:24@127:4] [debug variable = strm_out.V]
  call void @llvm.dbg.value(metadata !{i32* %strm_in_V}, i64 0, metadata !1770), !dbg !1772 ; [debug line = 136:24@127:4] [debug variable = strm_in.V]
  call void @llvm.dbg.value(metadata !{i14 %strm_len}, i64 0, metadata !1713), !dbg !1766 ; [debug line = 137:16@127:4] [debug variable = strm_len]
  %tmp_7 = call i12 @_ssdm_op_PartSelect.i12.i14.i32.i32(i14 %strm_len_read, i32 2, i32 13) ; [#uses=1 type=i12]
  %tmp_8 = call i14 @_ssdm_op_BitConcatenate.i14.i12.i2(i12 %tmp_7, i2 0) ; [#uses=1 type=i14]
  br label %0, !dbg !1773                         ; [debug line = 143:9@127:4]

; <label>:0                                       ; preds = %._crit_edge.i, %entry
  %indvar_flatten = phi i14 [ 0, %entry ], [ %indvar_flatten_next, %._crit_edge.i ] ; [#uses=2 type=i14]
  %j_i = phi i3 [ 0, %entry ], [ %j, %._crit_edge.i ] ; [#uses=2 type=i3]
  %acc_i = phi i34 [ 0, %entry ], [ %acc, %._crit_edge.i ] ; [#uses=1 type=i34]
  %exitcond_flatten = icmp eq i14 %indvar_flatten, %tmp_8 ; [#uses=1 type=i1]
  %indvar_flatten_next = add i14 %indvar_flatten, 1 ; [#uses=1 type=i14]
  br i1 %exitcond_flatten, label %decimate_strm.exit, label %.reset

; <label>:1                                       ; preds = %.reset
  %tmp_6 = call i32 @_ssdm_op_PartSelect.i32.i34.i32.i32(i34 %acc, i32 2, i32 33), !dbg !1776 ; [#uses=1 type=i32] [debug line = 153:13@127:4]
  call void @llvm.dbg.value(metadata !{i32* %strm_out_V}, i64 0, metadata !1780), !dbg !1783 ; [debug line = 105:48@153:13@127:4] [debug variable = stream<int>.V]
  call void @llvm.dbg.value(metadata !{i32* %strm_out_V}, i64 0, metadata !1784), !dbg !1787 ; [debug line = 144:48@106:9@153:13@127:4] [debug variable = stream<int>.V]
  call void @llvm.dbg.value(metadata !{i32 %tmp_6}, i64 0, metadata !1788), !dbg !1789 ; [debug line = 145:31@106:9@153:13@127:4] [debug variable = tmp]
  call void @llvm.dbg.value(metadata !{i32 %tmp_6}, i64 0, metadata !1707), !dbg !1789 ; [debug line = 145:31@106:9@153:13@127:4] [debug variable = tmp]
  call void @_ssdm_op_Write.ap_fifo.volatile.i32P(i32* %strm_out_V, i32 %tmp_6), !dbg !1790 ; [debug line = 146:9@106:9@153:13@127:4]
  br label %._crit_edge.i, !dbg !1776             ; [debug line = 153:13@127:4]

._crit_edge.i:                                    ; preds = %.reset, %1
  %empty = call i32 (...)* @_ssdm_op_SpecRegionEnd([14 x i8]* @p_str6, i32 %tmp_12_i), !dbg !1791 ; [#uses=0 type=i32] [debug line = 154:7@127:4]
  %j = add i3 %j_i_mid2, 1, !dbg !1792            ; [#uses=1 type=i3] [debug line = 147:26@127:4]
  call void @llvm.dbg.value(metadata !{i3 %j}, i64 0, metadata !1793), !dbg !1792 ; [debug line = 147:26@127:4] [debug variable = j]
  br label %0

.reset:                                           ; preds = %0
  call void (...)* @_ssdm_op_SpecLoopName([26 x i8]* @STREAM_LOOP_DECIMATE)
  call void (...)* @_ssdm_op_SpecLoopTripCount(i64 0, i64 372, i64 184)
  %tmp_3_i3 = icmp eq i3 %j_i, -4, !dbg !1794     ; [#uses=2 type=i1] [debug line = 147:12@127:4]
  %j_i_mid2 = select i1 %tmp_3_i3, i3 0, i3 %j_i  ; [#uses=2 type=i3]
  %acc_i_mid2 = select i1 %tmp_3_i3, i34 0, i34 %acc_i ; [#uses=1 type=i34]
  call void (...)* @_ssdm_op_SpecLoopName([14 x i8]* @p_str6) nounwind, !dbg !1795 ; [debug line = 147:32@127:4]
  %tmp_12_i = call i32 (...)* @_ssdm_op_SpecRegionBegin([14 x i8]* @p_str6), !dbg !1795 ; [#uses=1 type=i32] [debug line = 147:32@127:4]
  call void (...)* @_ssdm_op_SpecPipeline(i32 -1, i32 1, i32 1, i32 0, [1 x i8]* @p_str2) nounwind, !dbg !1796 ; [debug line = 148:1@127:4]
  call void @llvm.dbg.value(metadata !{i32* %strm_in_V}, i64 0, metadata !1797), !dbg !1801 ; [debug line = 129:56@149:9@127:4] [debug variable = stream<int>.V]
  %tmp = call i32 @_ssdm_op_Read.ap_fifo.volatile.i32P(i32* %strm_in_V), !dbg !1802 ; [#uses=1 type=i32] [debug line = 131:9@149:9@127:4]
  call void @llvm.dbg.value(metadata !{i32 %tmp}, i64 0, metadata !1804), !dbg !1802 ; [debug line = 131:9@149:9@127:4] [debug variable = tmp]
  %tmp_4_cast_i = sext i32 %tmp to i34, !dbg !1800 ; [#uses=1 type=i34] [debug line = 149:9@127:4]
  %acc = add i34 %tmp_4_cast_i, %acc_i_mid2, !dbg !1800 ; [#uses=2 type=i34] [debug line = 149:9@127:4]
  call void @llvm.dbg.value(metadata !{i34 %acc}, i64 0, metadata !1805), !dbg !1800 ; [debug line = 149:9@127:4] [debug variable = acc]
  %tmp_5_i = icmp eq i3 %j_i_mid2, 3, !dbg !1807  ; [#uses=1 type=i1] [debug line = 152:10@127:4]
  br i1 %tmp_5_i, label %1, label %._crit_edge.i, !dbg !1807 ; [debug line = 152:10@127:4]

decimate_strm.exit:                               ; preds = %0
  ret void
}

; [#uses=1]
define internal fastcc void @bytestrm_dwordproc.e(i16 %strm_len, i16* %strm_len_out, i16* %strm_len_out1) {
entry:
  call void (...)* @_ssdm_op_SpecInterface(i16* %strm_len_out, [8 x i8]* @ap_fifo_str, i32 0, i32 0, [1 x i8]* @p_str25, i32 0, i32 0, [1 x i8]* @p_str26, [1 x i8]* @p_str27, [1 x i8]* @p_str28, i32 2, i32 2, i32 16, i32 16, [1 x i8]* @p_str29, [1 x i8]* @p_str30)
  %strm_len_read = call i16 @_ssdm_op_Read.ap_auto.i16(i16 %strm_len) ; [#uses=2 type=i16]
  call void @_ssdm_op_Write.ap_fifo.i16P(i16* %strm_len_out, i16 %strm_len_read)
  call void (...)* @_ssdm_op_SpecInterface(i16* %strm_len_out1, [8 x i8]* @ap_fifo_str, i32 0, i32 0, [1 x i8]* @p_str31, i32 0, i32 0, [1 x i8]* @p_str32, [1 x i8]* @p_str33, [1 x i8]* @p_str34, i32 2, i32 2, i32 16, i32 16, [1 x i8]* @p_str35, [1 x i8]* @p_str36)
  call void @_ssdm_op_Write.ap_fifo.i16P(i16* %strm_len_out1, i16 %strm_len_read)
  ret void
}

; [#uses=0]
define void @bytestrm_dwordproc(i8* %strm_out_V, i8* %strm_in_V, i16 zeroext %strm_len) {
codeRepl:
  %strm_len_read = call i16 @_ssdm_op_Read.ap_auto.i16(i16 %strm_len) ; [#uses=1 type=i16]
  call void @llvm.dbg.value(metadata !{i16 %strm_len_read}, i64 0, metadata !1808), !dbg !1812 ; [debug line = 105:16] [debug variable = strm_len]
  %bytes_out_len_loc_ch = alloca i14, align 2     ; [#uses=5 type=i14*]
  %strm_len_channel2 = alloca i16, align 2        ; [#uses=5 type=i16*]
  %strm_len_channel = alloca i16, align 2         ; [#uses=5 type=i16*]
  call void (...)* @_ssdm_op_SpecDataflowPipeline(i32 -1, [1 x i8]* @p_str2) nounwind, !dbg !1813 ; [debug line = 117:1]
  call void (...)* @_ssdm_op_SpecBitsMap(i8* %strm_out_V), !map !1815
  call void (...)* @_ssdm_op_SpecBitsMap(i8* %strm_in_V), !map !1819
  call void (...)* @_ssdm_op_SpecBitsMap(i16 %strm_len), !map !1823
  call void (...)* @_ssdm_op_SpecTopModule([19 x i8]* @bytestrm_dwordproc_s) nounwind
  %dwordstrm_in_V = alloca i32, align 4           ; [#uses=5 type=i32*]
  %empty = call i32 (...)* @_ssdm_op_SpecChannel([15 x i8]* @dwordstrm_in_OC_V_st, i32 1, [1 x i8]* @p_str7, [1 x i8]* @p_str7, i32 4, i32 4, i32* %dwordstrm_in_V, i32* %dwordstrm_in_V) ; [#uses=0 type=i32]
  call void (...)* @_ssdm_op_SpecInterface(i32* %dwordstrm_in_V, [8 x i8]* @ap_fifo_str, i32 0, i32 0, [1 x i8]* @p_str8, i32 0, i32 0, [1 x i8]* @p_str9, [1 x i8]* @p_str10, [1 x i8]* @p_str11, i32 2, i32 2, i32 16, i32 16, [1 x i8]* @p_str12, [1 x i8]* @p_str13)
  %dwordstrm_out_V = alloca i32, align 4          ; [#uses=5 type=i32*]
  %empty_16 = call i32 (...)* @_ssdm_op_SpecChannel([16 x i8]* @dwordstrm_out_OC_V_s, i32 1, [1 x i8]* @p_str14, [1 x i8]* @p_str14, i32 1, i32 1, i32* %dwordstrm_out_V, i32* %dwordstrm_out_V) ; [#uses=0 type=i32]
  call void (...)* @_ssdm_op_SpecInterface(i32* %dwordstrm_out_V, [8 x i8]* @ap_fifo_str, i32 0, i32 0, [1 x i8]* @p_str15, i32 0, i32 0, [1 x i8]* @p_str16, [1 x i8]* @p_str17, [1 x i8]* @p_str18, i32 2, i32 2, i32 16, i32 16, [1 x i8]* @p_str19, [1 x i8]* @p_str20)
  call void (...)* @_ssdm_op_SpecInterface(i8* %strm_in_V, [5 x i8]* @p_str, i32 1, i32 1, [5 x i8]* @p_str1, i32 0, i32 0, [1 x i8]* @p_str2, [1 x i8]* @p_str2, [1 x i8]* @p_str2, i32 0, i32 0, i32 0, i32 0, [1 x i8]* @p_str2, [1 x i8]* @p_str2) nounwind, !dbg !1829 ; [debug line = 109:1]
  call void (...)* @_ssdm_op_SpecInterface(i8* %strm_out_V, [5 x i8]* @p_str, i32 1, i32 1, [5 x i8]* @p_str1, i32 0, i32 0, [1 x i8]* @p_str2, [1 x i8]* @p_str2, [1 x i8]* @p_str2, i32 0, i32 0, i32 0, i32 0, [1 x i8]* @p_str2, [1 x i8]* @p_str2) nounwind, !dbg !1830 ; [debug line = 110:1]
  call void @llvm.dbg.value(metadata !{i8* %strm_out_V}, i64 0, metadata !1831), !dbg !1833 ; [debug line = 103:29] [debug variable = strm_out.V]
  call void @llvm.dbg.value(metadata !{i8* %strm_in_V}, i64 0, metadata !1834), !dbg !1836 ; [debug line = 104:29] [debug variable = strm_in.V]
  call void @llvm.dbg.value(metadata !{i16 %strm_len}, i64 0, metadata !1808), !dbg !1812 ; [debug line = 105:16] [debug variable = strm_len]
  call void @llvm.dbg.value(metadata !{i16 %strm_len}, i64 0, metadata !1837), !dbg !1838 ; [debug line = 120:36] [debug variable = bytes_in_len]
  call void @llvm.dbg.declare(metadata !{i32* %dwordstrm_in_V}, metadata !1839), !dbg !1841 ; [debug line = 113:20] [debug variable = dwordstrm_in.V]
  call void @llvm.dbg.declare(metadata !{i32* %dwordstrm_out_V}, metadata !1842), !dbg !1844 ; [debug line = 114:20] [debug variable = dwordstrm_out.V]
  %empty_17 = call i32 (...)* @_ssdm_op_SpecChannel([17 x i8]* @strm_len_channel_str, i32 1, [1 x i8]* @p_str37, [1 x i8]* @p_str37, i32 1, i32 0, i16* %strm_len_channel, i16* %strm_len_channel) ; [#uses=0 type=i32]
  call void (...)* @_ssdm_op_SpecInterface(i16* %strm_len_channel, [8 x i8]* @ap_fifo_str, i32 0, i32 0, [1 x i8]* @p_str38, i32 0, i32 0, [1 x i8]* @p_str39, [1 x i8]* @p_str40, [1 x i8]* @p_str41, i32 2, i32 2, i32 16, i32 16, [1 x i8]* @p_str42, [1 x i8]* @p_str43)
  %empty_18 = call i32 (...)* @_ssdm_op_SpecChannel([18 x i8]* @strm_len_channel2_st, i32 1, [1 x i8]* @p_str44, [1 x i8]* @p_str44, i32 1, i32 0, i16* %strm_len_channel2, i16* %strm_len_channel2) ; [#uses=0 type=i32]
  call void (...)* @_ssdm_op_SpecInterface(i16* %strm_len_channel2, [8 x i8]* @ap_fifo_str, i32 0, i32 0, [1 x i8]* @p_str45, i32 0, i32 0, [1 x i8]* @p_str46, [1 x i8]* @p_str47, [1 x i8]* @p_str48, i32 2, i32 2, i32 16, i32 16, [1 x i8]* @p_str49, [1 x i8]* @p_str50)
  call fastcc void @bytestrm_dwordproc.e(i16 %strm_len_read, i16* %strm_len_channel, i16* %strm_len_channel2)
  %empty_19 = call i32 (...)* @_ssdm_op_SpecChannel([26 x i8]* @bytes_out_len_OC_loc, i32 1, [1 x i8]* @p_str64, [1 x i8]* @p_str64, i32 2, i32 0, i14* %bytes_out_len_loc_ch, i14* %bytes_out_len_loc_ch) ; [#uses=0 type=i32]
  call void (...)* @_ssdm_op_SpecInterface(i14* %bytes_out_len_loc_ch, [8 x i8]* @ap_fifo_str, i32 0, i32 0, [1 x i8]* @p_str65, i32 0, i32 0, [1 x i8]* @p_str66, [1 x i8]* @p_str67, [1 x i8]* @p_str68, i32 2, i32 2, i32 16, i32 16, [1 x i8]* @p_str69, [1 x i8]* @p_str70)
  %dwords_in_len_cast_l = call fastcc i14 @Block__proc(i16* %strm_len_channel2, i14* %bytes_out_len_loc_ch) ; [#uses=1 type=i14]
  call fastcc void @strm_bytes2words(i32* %dwordstrm_in_V, i8* %strm_in_V, i16* nocapture %strm_len_channel), !dbg !1845 ; [debug line = 124:4]
  call fastcc void @decimate_strm(i32* %dwordstrm_out_V, i32* %dwordstrm_in_V, i14 %dwords_in_len_cast_l)
  call fastcc void @strm_words2bytes(i8* %strm_out_V, i32* %dwordstrm_out_V, i14* nocapture %bytes_out_len_loc_ch)
  ret void, !dbg !1846                            ; [debug line = 131:1]
}

; [#uses=1]
define weak void @_ssdm_op_Write.axis.volatile.i8P(i8*, i8) {
entry:
  store i8 %1, i8* %0
  ret void
}

; [#uses=2]
define weak void @_ssdm_op_Write.ap_fifo.volatile.i32P(i32*, i32) {
entry:
  %empty = call i32 @_autotb_FifoWrite_i32(i32* %0, i32 %1) ; [#uses=0 type=i32]
  ret void
}

; [#uses=2]
define weak void @_ssdm_op_Write.ap_fifo.i16P(i16*, i16) {
entry:
  %empty = call i16 @_autotb_FifoWrite_i16(i16* %0, i16 %1) ; [#uses=0 type=i16]
  ret void
}

; [#uses=1]
define weak void @_ssdm_op_Write.ap_fifo.i14P(i14*, i14) {
entry:
  %empty = call i14 @_autotb_FifoWrite_i14(i14* %0, i14 %1) ; [#uses=0 type=i14]
  ret void
}

; [#uses=1]
define weak void @_ssdm_op_SpecTopModule(...) {
entry:
  ret void
}

; [#uses=3]
define weak i32 @_ssdm_op_SpecRegionEnd(...) {
entry:
  ret i32 0
}

; [#uses=3]
define weak i32 @_ssdm_op_SpecRegionBegin(...) {
entry:
  ret i32 0
}

; [#uses=1]
define weak void @_ssdm_op_SpecPipeline(...) nounwind {
entry:
  ret void
}

; [#uses=3]
define weak void @_ssdm_op_SpecLoopTripCount(...) nounwind {
entry:
  ret void
}

; [#uses=4]
define weak void @_ssdm_op_SpecLoopName(...) nounwind {
entry:
  ret void
}

; [#uses=21]
define weak void @_ssdm_op_SpecInterface(...) nounwind {
entry:
  ret void
}

; [#uses=1]
define weak void @_ssdm_op_SpecDataflowPipeline(...) nounwind {
entry:
  ret void
}

; [#uses=5]
define weak i32 @_ssdm_op_SpecChannel(...) {
entry:
  ret i32 0
}

; [#uses=3]
define weak void @_ssdm_op_SpecBitsMap(...) {
entry:
  ret void
}

; [#uses=1]
define weak i8 @_ssdm_op_Read.axis.volatile.i8P(i8*) {
entry:
  %empty = load i8* %0                            ; [#uses=1 type=i8]
  ret i8 %empty
}

; [#uses=2]
define weak i32 @_ssdm_op_Read.ap_fifo.volatile.i32P(i32*) {
entry:
  %empty = call i32 @_autotb_FifoRead_i32(i32* %0) ; [#uses=1 type=i32]
  ret i32 %empty
}

; [#uses=2]
define weak i16 @_ssdm_op_Read.ap_fifo.i16P(i16*) {
entry:
  %empty = call i16 @_autotb_FifoRead_i16(i16* %0) ; [#uses=1 type=i16]
  ret i16 %empty
}

; [#uses=1]
define weak i14 @_ssdm_op_Read.ap_fifo.i14P(i14*) {
entry:
  %empty = call i14 @_autotb_FifoRead_i14(i14* %0) ; [#uses=1 type=i14]
  ret i14 %empty
}

; [#uses=2]
define weak i16 @_ssdm_op_Read.ap_auto.i16(i16) {
entry:
  ret i16 %0
}

; [#uses=1]
define weak i14 @_ssdm_op_Read.ap_auto.i14(i14) {
entry:
  ret i14 %0
}

; [#uses=0]
declare i8 @_ssdm_op_PartSelect.i8.i32.i32.i32(i32, i32, i32) nounwind readnone

; [#uses=1]
define weak i32 @_ssdm_op_PartSelect.i32.i34.i32.i32(i34, i32, i32) nounwind readnone {
entry:
  %empty = call i34 @llvm.part.select.i34(i34 %0, i32 %1, i32 %2) ; [#uses=1 type=i34]
  %empty_20 = trunc i34 %empty to i32             ; [#uses=1 type=i32]
  ret i32 %empty_20
}

; [#uses=1]
define weak i24 @_ssdm_op_PartSelect.i24.i32.i32.i32(i32, i32, i32) nounwind readnone {
entry:
  %empty = call i32 @llvm.part.select.i32(i32 %0, i32 %1, i32 %2) ; [#uses=1 type=i32]
  %empty_21 = trunc i32 %empty to i24             ; [#uses=1 type=i24]
  ret i24 %empty_21
}

; [#uses=0]
declare i2 @_ssdm_op_PartSelect.i2.i16.i32.i32(i16, i32, i32) nounwind readnone

; [#uses=1]
define weak i16 @_ssdm_op_PartSelect.i16.i24.i32.i32(i24, i32, i32) nounwind readnone {
entry:
  %empty = call i24 @llvm.part.select.i24(i24 %0, i32 %1, i32 %2) ; [#uses=1 type=i24]
  %empty_22 = trunc i24 %empty to i16             ; [#uses=1 type=i16]
  ret i16 %empty_22
}

; [#uses=1]
define weak i14 @_ssdm_op_PartSelect.i14.i16.i32.i32(i16, i32, i32) nounwind readnone {
entry:
  %empty = call i16 @llvm.part.select.i16(i16 %0, i32 %1, i32 %2) ; [#uses=1 type=i16]
  %empty_23 = trunc i16 %empty to i14             ; [#uses=1 type=i14]
  ret i14 %empty_23
}

; [#uses=1]
define weak i12 @_ssdm_op_PartSelect.i12.i16.i32.i32(i16, i32, i32) nounwind readnone {
entry:
  %empty = call i16 @llvm.part.select.i16(i16 %0, i32 %1, i32 %2) ; [#uses=1 type=i16]
  %empty_24 = trunc i16 %empty to i12             ; [#uses=1 type=i12]
  ret i12 %empty_24
}

; [#uses=1]
define weak i12 @_ssdm_op_PartSelect.i12.i14.i32.i32(i14, i32, i32) nounwind readnone {
entry:
  %empty = call i14 @llvm.part.select.i14(i14 %0, i32 %1, i32 %2) ; [#uses=1 type=i14]
  %empty_25 = trunc i14 %empty to i12             ; [#uses=1 type=i12]
  ret i12 %empty_25
}

; [#uses=1]
define weak i32 @_ssdm_op_BitConcatenate.i32.i8.i24(i8, i24) nounwind readnone {
entry:
  %empty = zext i8 %0 to i32                      ; [#uses=1 type=i32]
  %empty_26 = zext i24 %1 to i32                  ; [#uses=1 type=i32]
  %empty_27 = shl i32 %empty, 24                  ; [#uses=1 type=i32]
  %empty_28 = or i32 %empty_27, %empty_26         ; [#uses=1 type=i32]
  ret i32 %empty_28
}

; [#uses=1]
define weak i24 @_ssdm_op_BitConcatenate.i24.i8.i16(i8, i16) nounwind readnone {
entry:
  %empty = zext i8 %0 to i24                      ; [#uses=1 type=i24]
  %empty_29 = zext i16 %1 to i24                  ; [#uses=1 type=i24]
  %empty_30 = shl i24 %empty, 16                  ; [#uses=1 type=i24]
  %empty_31 = or i24 %empty_30, %empty_29         ; [#uses=1 type=i24]
  ret i24 %empty_31
}

; [#uses=2]
define weak i14 @_ssdm_op_BitConcatenate.i14.i12.i2(i12, i2) nounwind readnone {
entry:
  %empty = zext i12 %0 to i14                     ; [#uses=1 type=i14]
  %empty_32 = zext i2 %1 to i14                   ; [#uses=1 type=i14]
  %empty_33 = shl i14 %empty, 2                   ; [#uses=1 type=i14]
  %empty_34 = or i14 %empty_33, %empty_32         ; [#uses=1 type=i14]
  ret i14 %empty_34
}

; [#uses=1]
declare i32 @_autotb_FifoWrite_i32(i32*, i32)

; [#uses=1]
declare i16 @_autotb_FifoWrite_i16(i16*, i16)

; [#uses=1]
declare i14 @_autotb_FifoWrite_i14(i14*, i14)

; [#uses=1]
declare i32 @_autotb_FifoRead_i32(i32*)

; [#uses=1]
declare i16 @_autotb_FifoRead_i16(i16*)

; [#uses=1]
declare i14 @_autotb_FifoRead_i14(i14*)

; [#uses=1]
declare void @_GLOBAL__I_a() nounwind section ".text.startup"

; [#uses=1]
define internal fastcc i14 @Block__proc(i16* nocapture %strm_len, i14* %bytes_out_len_out_out) {
entry:
  call void (...)* @_ssdm_op_SpecInterface(i14* %bytes_out_len_out_out, [8 x i8]* @ap_fifo_str, i32 0, i32 0, [1 x i8]* @p_str58, i32 0, i32 0, [1 x i8]* @p_str59, [1 x i8]* @p_str60, [1 x i8]* @p_str61, i32 2, i32 2, i32 16, i32 16, [1 x i8]* @p_str62, [1 x i8]* @p_str63)
  call void (...)* @_ssdm_op_SpecInterface(i16* %strm_len, [8 x i8]* @ap_fifo_str, i32 0, i32 0, [1 x i8]* @p_str52, i32 0, i32 0, [1 x i8]* @p_str53, [1 x i8]* @p_str54, [1 x i8]* @p_str55, i32 2, i32 2, i32 16, i32 16, [1 x i8]* @p_str56, [1 x i8]* @p_str57)
  %strm_len_read = call i16 @_ssdm_op_Read.ap_fifo.i16P(i16* %strm_len) ; [#uses=2 type=i16]
  %dwords_in_len_cast_o = call i14 @_ssdm_op_PartSelect.i14.i16.i32.i32(i16 %strm_len_read, i32 2, i32 15), !dbg !1847 ; [#uses=1 type=i14] [debug line = 121:41]
  %tmp = call i12 @_ssdm_op_PartSelect.i12.i16.i32.i32(i16 %strm_len_read, i32 4, i32 15) ; [#uses=1 type=i12]
  %bytes_out_len = call i14 @_ssdm_op_BitConcatenate.i14.i12.i2(i12 %tmp, i2 0), !dbg !1848 ; [#uses=1 type=i14] [debug line = 122:52]
  call void @llvm.dbg.value(metadata !{i14 %bytes_out_len}, i64 0, metadata !1849), !dbg !1848 ; [debug line = 122:52] [debug variable = bytes_out_len]
  call void @_ssdm_op_Write.ap_fifo.i14P(i14* %bytes_out_len_out_out, i14 %bytes_out_len)
  ret i14 %dwords_in_len_cast_o
}

!opencl.kernels = !{!0, !7, !10, !16, !22, !22, !25, !31, !34, !25, !34, !25, !22, !22, !25, !36, !25, !25, !25, !38, !38, !39, !39, !41, !38, !38, !25, !43, !25, !45, !45, !25, !49, !49, !25, !51, !53, !25, !25, !56, !59, !61, !61, !63, !25, !63, !65, !67, !67, !68, !25, !25, !70, !72, !25}
!hls.encrypted.func = !{}
!llvm.map.gv = !{!74}

!0 = metadata !{null, metadata !1, metadata !2, metadata !3, metadata !4, metadata !5, metadata !6}
!1 = metadata !{metadata !"kernel_arg_addr_space", i32 0, i32 0, i32 0}
!2 = metadata !{metadata !"kernel_arg_access_qual", metadata !"none", metadata !"none", metadata !"none"}
!3 = metadata !{metadata !"kernel_arg_type", metadata !"hls::stream<uint8_t> &", metadata !"hls::stream<uint8_t> &", metadata !"uint16_t"}
!4 = metadata !{metadata !"kernel_arg_type_qual", metadata !"", metadata !"", metadata !""}
!5 = metadata !{metadata !"kernel_arg_name", metadata !"strm_out", metadata !"strm_in", metadata !"strm_len"}
!6 = metadata !{metadata !"reqd_work_group_size", i32 1, i32 1, i32 1}
!7 = metadata !{null, metadata !1, metadata !2, metadata !8, metadata !4, metadata !9, metadata !6}
!8 = metadata !{metadata !"kernel_arg_type", metadata !"hls::stream<uint8_t> &", metadata !"hls::stream<int> &", metadata !"uint16_t"}
!9 = metadata !{metadata !"kernel_arg_name", metadata !"bytes_out", metadata !"words_in", metadata !"bytestrm_len"}
!10 = metadata !{null, metadata !11, metadata !12, metadata !13, metadata !14, metadata !15, metadata !6}
!11 = metadata !{metadata !"kernel_arg_addr_space", i32 0}
!12 = metadata !{metadata !"kernel_arg_access_qual", metadata !"none"}
!13 = metadata !{metadata !"kernel_arg_type", metadata !"const uchar &"}
!14 = metadata !{metadata !"kernel_arg_type_qual", metadata !""}
!15 = metadata !{metadata !"kernel_arg_name", metadata !"din"}
!16 = metadata !{null, metadata !17, metadata !18, metadata !19, metadata !20, metadata !21, metadata !6}
!17 = metadata !{metadata !"kernel_arg_addr_space", i32 0, i32 0}
!18 = metadata !{metadata !"kernel_arg_access_qual", metadata !"none", metadata !"none"}
!19 = metadata !{metadata !"kernel_arg_type", metadata !"ap_int_base<32, false> &", metadata !"int"}
!20 = metadata !{metadata !"kernel_arg_type_qual", metadata !"", metadata !""}
!21 = metadata !{metadata !"kernel_arg_name", metadata !"op", metadata !"op2"}
!22 = metadata !{null, metadata !11, metadata !12, metadata !23, metadata !14, metadata !24, metadata !6}
!23 = metadata !{metadata !"kernel_arg_type", metadata !"int"}
!24 = metadata !{metadata !"kernel_arg_name", metadata !"op"}
!25 = metadata !{null, metadata !26, metadata !27, metadata !28, metadata !29, metadata !30, metadata !6}
!26 = metadata !{metadata !"kernel_arg_addr_space"}
!27 = metadata !{metadata !"kernel_arg_access_qual"}
!28 = metadata !{metadata !"kernel_arg_type"}
!29 = metadata !{metadata !"kernel_arg_type_qual"}
!30 = metadata !{metadata !"kernel_arg_name"}
!31 = metadata !{null, metadata !11, metadata !12, metadata !32, metadata !14, metadata !33, metadata !6}
!32 = metadata !{metadata !"kernel_arg_type", metadata !"const ap_int_base<32, true> &"}
!33 = metadata !{metadata !"kernel_arg_name", metadata !"op2"}
!34 = metadata !{null, metadata !11, metadata !12, metadata !35, metadata !14, metadata !33, metadata !6}
!35 = metadata !{metadata !"kernel_arg_type", metadata !"const ap_int_base<32, false> &"}
!36 = metadata !{null, metadata !17, metadata !18, metadata !37, metadata !20, metadata !21, metadata !6}
!37 = metadata !{metadata !"kernel_arg_type", metadata !"const ap_int_base<1, false> &", metadata !"const ap_int_base<32, true> &"}
!38 = metadata !{null, metadata !11, metadata !12, metadata !32, metadata !14, metadata !24, metadata !6}
!39 = metadata !{null, metadata !11, metadata !12, metadata !40, metadata !14, metadata !24, metadata !6}
!40 = metadata !{metadata !"kernel_arg_type", metadata !"const ap_int_base<1, false> &"}
!41 = metadata !{null, metadata !11, metadata !12, metadata !42, metadata !14, metadata !33, metadata !6}
!42 = metadata !{metadata !"kernel_arg_type", metadata !"const ap_int_base<33, true> &"}
!43 = metadata !{null, metadata !11, metadata !12, metadata !23, metadata !14, metadata !44, metadata !6}
!44 = metadata !{metadata !"kernel_arg_name", metadata !"index"}
!45 = metadata !{null, metadata !46, metadata !18, metadata !47, metadata !20, metadata !48, metadata !6}
!46 = metadata !{metadata !"kernel_arg_addr_space", i32 1, i32 0}
!47 = metadata !{metadata !"kernel_arg_type", metadata !"ap_int_base<32, true>*", metadata !"int"}
!48 = metadata !{metadata !"kernel_arg_name", metadata !"bv", metadata !"index"}
!49 = metadata !{null, metadata !11, metadata !12, metadata !23, metadata !14, metadata !50, metadata !6}
!50 = metadata !{metadata !"kernel_arg_name", metadata !"val"}
!51 = metadata !{null, metadata !11, metadata !12, metadata !52, metadata !14, metadata !33, metadata !6}
!52 = metadata !{metadata !"kernel_arg_type", metadata !"const ap_uint<32> &"}
!53 = metadata !{null, metadata !11, metadata !12, metadata !54, metadata !14, metadata !55, metadata !6}
!54 = metadata !{metadata !"kernel_arg_type", metadata !"int &"}
!55 = metadata !{metadata !"kernel_arg_name", metadata !"dout"}
!56 = metadata !{null, metadata !1, metadata !2, metadata !57, metadata !4, metadata !58, metadata !6}
!57 = metadata !{metadata !"kernel_arg_type", metadata !"hls::stream<int> &", metadata !"hls::stream<uint8_t> &", metadata !"uint16_t"}
!58 = metadata !{metadata !"kernel_arg_name", metadata !"words_out", metadata !"bytes_in", metadata !"bytestrm_len"}
!59 = metadata !{null, metadata !11, metadata !12, metadata !60, metadata !14, metadata !15, metadata !6}
!60 = metadata !{metadata !"kernel_arg_type", metadata !"const int &"}
!61 = metadata !{null, metadata !11, metadata !12, metadata !62, metadata !14, metadata !50, metadata !6}
!62 = metadata !{metadata !"kernel_arg_type", metadata !"uchar"}
!63 = metadata !{null, metadata !17, metadata !18, metadata !64, metadata !20, metadata !21, metadata !6}
!64 = metadata !{metadata !"kernel_arg_type", metadata !"const ap_int_base<32, false> &", metadata !"int"}
!65 = metadata !{null, metadata !17, metadata !18, metadata !66, metadata !20, metadata !21, metadata !6}
!66 = metadata !{metadata !"kernel_arg_type", metadata !"const ap_int_base<32, false> &", metadata !"const ap_int_base<32, false> &"}
!67 = metadata !{null, metadata !11, metadata !12, metadata !35, metadata !14, metadata !24, metadata !6}
!68 = metadata !{null, metadata !11, metadata !12, metadata !69, metadata !14, metadata !55, metadata !6}
!69 = metadata !{metadata !"kernel_arg_type", metadata !"uchar &"}
!70 = metadata !{null, metadata !1, metadata !2, metadata !71, metadata !4, metadata !5, metadata !6}
!71 = metadata !{metadata !"kernel_arg_type", metadata !"stream<int32_t> &", metadata !"stream<int32_t> &", metadata !"uint16_t"}
!72 = metadata !{null, metadata !11, metadata !12, metadata !60, metadata !14, metadata !73, metadata !6}
!73 = metadata !{metadata !"kernel_arg_name", metadata !"wdata"}
!74 = metadata !{metadata !75, [1 x i32]* @llvm_global_ctors_0}
!75 = metadata !{metadata !76}
!76 = metadata !{i32 0, i32 31, metadata !77}
!77 = metadata !{metadata !78}
!78 = metadata !{metadata !"llvm.global_ctors.0", metadata !79, metadata !"", i32 0, i32 31}
!79 = metadata !{metadata !80}
!80 = metadata !{i32 0, i32 0, i32 1}
!81 = metadata !{i32 790531, metadata !82, metadata !"bytes_out.V", null, i32 134, metadata !203, i32 0, metadata !206} ; [ DW_TAG_arg_variable_field ]
!82 = metadata !{i32 786689, metadata !83, metadata !"bytes_out", metadata !84, i32 16777350, metadata !87, i32 0, i32 0} ; [ DW_TAG_arg_variable ]
!83 = metadata !{i32 786478, i32 0, metadata !84, metadata !"strm_words2bytes<int, '\5Cx04', false>", metadata !"strm_words2bytes<int, '\5Cx04', false>", metadata !"_Z16strm_words2bytesIiLh4ELb0EEvRN3hls6streamIhEERNS1_IT_EEt", metadata !84, i32 133, metadata !85, i1 false, i1 true, i32 0, i32 0, null, i32 256, i1 false, null, metadata !199, null, metadata !98, i32 138} ; [ DW_TAG_subprogram ]
!84 = metadata !{i32 786473, metadata !"./bytestrm_util.h", metadata !"/home/vkchcp0030/Documents/learn_hls/hls_stream/hls_stream", null} ; [ DW_TAG_file_type ]
!85 = metadata !{i32 786453, i32 0, metadata !"", i32 0, i32 0, i64 0, i64 0, i64 0, i32 0, null, metadata !86, i32 0, i32 0} ; [ DW_TAG_subroutine_type ]
!86 = metadata !{null, metadata !87, metadata !146, metadata !196}
!87 = metadata !{i32 786448, null, null, null, i32 0, i64 0, i64 0, i64 0, i32 0, metadata !88} ; [ DW_TAG_reference_type ]
!88 = metadata !{i32 786434, metadata !89, metadata !"stream<unsigned char>", metadata !90, i32 79, i64 8, i64 8, i32 0, i32 0, null, metadata !91, i32 0, null, metadata !144} ; [ DW_TAG_class_type ]
!89 = metadata !{i32 786489, null, metadata !"hls", metadata !90, i32 69} ; [ DW_TAG_namespace ]
!90 = metadata !{i32 786473, metadata !"/opt/Xilinx/Vivado_HLS/2017.2/common/technology/autopilot/hls_stream.h", metadata !"/home/vkchcp0030/Documents/learn_hls/hls_stream/hls_stream", null} ; [ DW_TAG_file_type ]
!91 = metadata !{metadata !92, metadata !94, metadata !100, metadata !106, metadata !111, metadata !114, metadata !118, metadata !123, metadata !128, metadata !129, metadata !130, metadata !133, metadata !136, metadata !137, metadata !140}
!92 = metadata !{i32 786445, metadata !88, metadata !"V", metadata !90, i32 163, i64 8, i64 8, i64 0, i32 0, metadata !93} ; [ DW_TAG_member ]
!93 = metadata !{i32 786468, null, metadata !"unsigned char", null, i32 0, i64 8, i64 8, i64 0, i32 0, i32 8} ; [ DW_TAG_base_type ]
!94 = metadata !{i32 786478, i32 0, metadata !88, metadata !"stream", metadata !"stream", metadata !"", metadata !90, i32 83, metadata !95, i1 false, i1 false, i32 0, i32 0, null, i32 256, i1 false, null, null, i32 0, metadata !98, i32 83} ; [ DW_TAG_subprogram ]
!95 = metadata !{i32 786453, i32 0, metadata !"", i32 0, i32 0, i64 0, i64 0, i64 0, i32 0, null, metadata !96, i32 0, i32 0} ; [ DW_TAG_subroutine_type ]
!96 = metadata !{null, metadata !97}
!97 = metadata !{i32 786447, i32 0, metadata !"", i32 0, i32 0, i64 64, i64 64, i64 0, i32 64, metadata !88} ; [ DW_TAG_pointer_type ]
!98 = metadata !{metadata !99}
!99 = metadata !{i32 786468}                      ; [ DW_TAG_base_type ]
!100 = metadata !{i32 786478, i32 0, metadata !88, metadata !"stream", metadata !"stream", metadata !"", metadata !90, i32 86, metadata !101, i1 false, i1 false, i32 0, i32 0, null, i32 256, i1 false, null, null, i32 0, metadata !98, i32 86} ; [ DW_TAG_subprogram ]
!101 = metadata !{i32 786453, i32 0, metadata !"", i32 0, i32 0, i64 0, i64 0, i64 0, i32 0, null, metadata !102, i32 0, i32 0} ; [ DW_TAG_subroutine_type ]
!102 = metadata !{null, metadata !97, metadata !103}
!103 = metadata !{i32 786447, null, metadata !"", null, i32 0, i64 64, i64 64, i64 0, i32 0, metadata !104} ; [ DW_TAG_pointer_type ]
!104 = metadata !{i32 786470, null, metadata !"", null, i32 0, i64 0, i64 0, i64 0, i32 0, metadata !105} ; [ DW_TAG_const_type ]
!105 = metadata !{i32 786468, null, metadata !"char", null, i32 0, i64 8, i64 8, i64 0, i32 0, i32 6} ; [ DW_TAG_base_type ]
!106 = metadata !{i32 786478, i32 0, metadata !88, metadata !"stream", metadata !"stream", metadata !"", metadata !90, i32 91, metadata !107, i1 false, i1 false, i32 0, i32 0, null, i32 257, i1 false, null, null, i32 0, metadata !98, i32 91} ; [ DW_TAG_subprogram ]
!107 = metadata !{i32 786453, i32 0, metadata !"", i32 0, i32 0, i64 0, i64 0, i64 0, i32 0, null, metadata !108, i32 0, i32 0} ; [ DW_TAG_subroutine_type ]
!108 = metadata !{null, metadata !97, metadata !109}
!109 = metadata !{i32 786448, null, null, null, i32 0, i64 0, i64 0, i64 0, i32 0, metadata !110} ; [ DW_TAG_reference_type ]
!110 = metadata !{i32 786470, null, metadata !"", null, i32 0, i64 0, i64 0, i64 0, i32 0, metadata !88} ; [ DW_TAG_const_type ]
!111 = metadata !{i32 786478, i32 0, metadata !88, metadata !"operator=", metadata !"operator=", metadata !"_ZN3hls6streamIhEaSERKS1_", metadata !90, i32 94, metadata !112, i1 false, i1 false, i32 0, i32 0, null, i32 257, i1 false, null, null, i32 0, metadata !98, i32 94} ; [ DW_TAG_subprogram ]
!112 = metadata !{i32 786453, i32 0, metadata !"", i32 0, i32 0, i64 0, i64 0, i64 0, i32 0, null, metadata !113, i32 0, i32 0} ; [ DW_TAG_subroutine_type ]
!113 = metadata !{metadata !87, metadata !97, metadata !109}
!114 = metadata !{i32 786478, i32 0, metadata !88, metadata !"operator>>", metadata !"operator>>", metadata !"_ZN3hls6streamIhErsERh", metadata !90, i32 101, metadata !115, i1 false, i1 false, i32 0, i32 0, null, i32 256, i1 false, null, null, i32 0, metadata !98, i32 101} ; [ DW_TAG_subprogram ]
!115 = metadata !{i32 786453, i32 0, metadata !"", i32 0, i32 0, i64 0, i64 0, i64 0, i32 0, null, metadata !116, i32 0, i32 0} ; [ DW_TAG_subroutine_type ]
!116 = metadata !{null, metadata !97, metadata !117}
!117 = metadata !{i32 786448, null, null, null, i32 0, i64 0, i64 0, i64 0, i32 0, metadata !93} ; [ DW_TAG_reference_type ]
!118 = metadata !{i32 786478, i32 0, metadata !88, metadata !"operator<<", metadata !"operator<<", metadata !"_ZN3hls6streamIhElsERKh", metadata !90, i32 105, metadata !119, i1 false, i1 false, i32 0, i32 0, null, i32 256, i1 false, null, null, i32 0, metadata !98, i32 105} ; [ DW_TAG_subprogram ]
!119 = metadata !{i32 786453, i32 0, metadata !"", i32 0, i32 0, i64 0, i64 0, i64 0, i32 0, null, metadata !120, i32 0, i32 0} ; [ DW_TAG_subroutine_type ]
!120 = metadata !{null, metadata !97, metadata !121}
!121 = metadata !{i32 786448, null, null, null, i32 0, i64 0, i64 0, i64 0, i32 0, metadata !122} ; [ DW_TAG_reference_type ]
!122 = metadata !{i32 786470, null, metadata !"", null, i32 0, i64 0, i64 0, i64 0, i32 0, metadata !93} ; [ DW_TAG_const_type ]
!123 = metadata !{i32 786478, i32 0, metadata !88, metadata !"empty", metadata !"empty", metadata !"_ZNK3hls6streamIhE5emptyEv", metadata !90, i32 112, metadata !124, i1 false, i1 false, i32 0, i32 0, null, i32 256, i1 false, null, null, i32 0, metadata !98, i32 112} ; [ DW_TAG_subprogram ]
!124 = metadata !{i32 786453, i32 0, metadata !"", i32 0, i32 0, i64 0, i64 0, i64 0, i32 0, null, metadata !125, i32 0, i32 0} ; [ DW_TAG_subroutine_type ]
!125 = metadata !{metadata !126, metadata !127}
!126 = metadata !{i32 786468, null, metadata !"bool", null, i32 0, i64 8, i64 8, i64 0, i32 0, i32 2} ; [ DW_TAG_base_type ]
!127 = metadata !{i32 786447, i32 0, metadata !"", i32 0, i32 0, i64 64, i64 64, i64 0, i32 64, metadata !110} ; [ DW_TAG_pointer_type ]
!128 = metadata !{i32 786478, i32 0, metadata !88, metadata !"full", metadata !"full", metadata !"_ZNK3hls6streamIhE4fullEv", metadata !90, i32 117, metadata !124, i1 false, i1 false, i32 0, i32 0, null, i32 256, i1 false, null, null, i32 0, metadata !98, i32 117} ; [ DW_TAG_subprogram ]
!129 = metadata !{i32 786478, i32 0, metadata !88, metadata !"read", metadata !"read", metadata !"_ZN3hls6streamIhE4readERh", metadata !90, i32 123, metadata !115, i1 false, i1 false, i32 0, i32 0, null, i32 256, i1 false, null, null, i32 0, metadata !98, i32 123} ; [ DW_TAG_subprogram ]
!130 = metadata !{i32 786478, i32 0, metadata !88, metadata !"read", metadata !"read", metadata !"_ZN3hls6streamIhE4readEv", metadata !90, i32 129, metadata !131, i1 false, i1 false, i32 0, i32 0, null, i32 256, i1 false, null, null, i32 0, metadata !98, i32 129} ; [ DW_TAG_subprogram ]
!131 = metadata !{i32 786453, i32 0, metadata !"", i32 0, i32 0, i64 0, i64 0, i64 0, i32 0, null, metadata !132, i32 0, i32 0} ; [ DW_TAG_subroutine_type ]
!132 = metadata !{metadata !93, metadata !97}
!133 = metadata !{i32 786478, i32 0, metadata !88, metadata !"read_nb", metadata !"read_nb", metadata !"_ZN3hls6streamIhE7read_nbERh", metadata !90, i32 136, metadata !134, i1 false, i1 false, i32 0, i32 0, null, i32 256, i1 false, null, null, i32 0, metadata !98, i32 136} ; [ DW_TAG_subprogram ]
!134 = metadata !{i32 786453, i32 0, metadata !"", i32 0, i32 0, i64 0, i64 0, i64 0, i32 0, null, metadata !135, i32 0, i32 0} ; [ DW_TAG_subroutine_type ]
!135 = metadata !{metadata !126, metadata !97, metadata !117}
!136 = metadata !{i32 786478, i32 0, metadata !88, metadata !"write", metadata !"write", metadata !"_ZN3hls6streamIhE5writeERKh", metadata !90, i32 144, metadata !119, i1 false, i1 false, i32 0, i32 0, null, i32 256, i1 false, null, null, i32 0, metadata !98, i32 144} ; [ DW_TAG_subprogram ]
!137 = metadata !{i32 786478, i32 0, metadata !88, metadata !"write_nb", metadata !"write_nb", metadata !"_ZN3hls6streamIhE8write_nbERKh", metadata !90, i32 150, metadata !138, i1 false, i1 false, i32 0, i32 0, null, i32 256, i1 false, null, null, i32 0, metadata !98, i32 150} ; [ DW_TAG_subprogram ]
!138 = metadata !{i32 786453, i32 0, metadata !"", i32 0, i32 0, i64 0, i64 0, i64 0, i32 0, null, metadata !139, i32 0, i32 0} ; [ DW_TAG_subroutine_type ]
!139 = metadata !{metadata !126, metadata !97, metadata !121}
!140 = metadata !{i32 786478, i32 0, metadata !88, metadata !"size", metadata !"size", metadata !"_ZN3hls6streamIhE4sizeEv", metadata !90, i32 157, metadata !141, i1 false, i1 false, i32 0, i32 0, null, i32 256, i1 false, null, null, i32 0, metadata !98, i32 157} ; [ DW_TAG_subprogram ]
!141 = metadata !{i32 786453, i32 0, metadata !"", i32 0, i32 0, i64 0, i64 0, i64 0, i32 0, null, metadata !142, i32 0, i32 0} ; [ DW_TAG_subroutine_type ]
!142 = metadata !{metadata !143, metadata !97}
!143 = metadata !{i32 786468, null, metadata !"unsigned int", null, i32 0, i64 32, i64 32, i64 0, i32 0, i32 7} ; [ DW_TAG_base_type ]
!144 = metadata !{metadata !145}
!145 = metadata !{i32 786479, null, metadata !"__STREAM_T__", metadata !93, null, i32 0, i32 0} ; [ DW_TAG_template_type_parameter ]
!146 = metadata !{i32 786448, null, null, null, i32 0, i64 0, i64 0, i64 0, i32 0, metadata !147} ; [ DW_TAG_reference_type ]
!147 = metadata !{i32 786434, metadata !89, metadata !"stream<int>", metadata !90, i32 79, i64 32, i64 32, i32 0, i32 0, null, metadata !148, i32 0, null, metadata !194} ; [ DW_TAG_class_type ]
!148 = metadata !{metadata !149, metadata !151, metadata !155, metadata !158, metadata !163, metadata !166, metadata !170, metadata !175, metadata !179, metadata !180, metadata !181, metadata !184, metadata !187, metadata !188, metadata !191}
!149 = metadata !{i32 786445, metadata !147, metadata !"V", metadata !90, i32 163, i64 32, i64 32, i64 0, i32 0, metadata !150} ; [ DW_TAG_member ]
!150 = metadata !{i32 786468, null, metadata !"int", null, i32 0, i64 32, i64 32, i64 0, i32 0, i32 5} ; [ DW_TAG_base_type ]
!151 = metadata !{i32 786478, i32 0, metadata !147, metadata !"stream", metadata !"stream", metadata !"", metadata !90, i32 83, metadata !152, i1 false, i1 false, i32 0, i32 0, null, i32 256, i1 false, null, null, i32 0, metadata !98, i32 83} ; [ DW_TAG_subprogram ]
!152 = metadata !{i32 786453, i32 0, metadata !"", i32 0, i32 0, i64 0, i64 0, i64 0, i32 0, null, metadata !153, i32 0, i32 0} ; [ DW_TAG_subroutine_type ]
!153 = metadata !{null, metadata !154}
!154 = metadata !{i32 786447, i32 0, metadata !"", i32 0, i32 0, i64 64, i64 64, i64 0, i32 64, metadata !147} ; [ DW_TAG_pointer_type ]
!155 = metadata !{i32 786478, i32 0, metadata !147, metadata !"stream", metadata !"stream", metadata !"", metadata !90, i32 86, metadata !156, i1 false, i1 false, i32 0, i32 0, null, i32 256, i1 false, null, null, i32 0, metadata !98, i32 86} ; [ DW_TAG_subprogram ]
!156 = metadata !{i32 786453, i32 0, metadata !"", i32 0, i32 0, i64 0, i64 0, i64 0, i32 0, null, metadata !157, i32 0, i32 0} ; [ DW_TAG_subroutine_type ]
!157 = metadata !{null, metadata !154, metadata !103}
!158 = metadata !{i32 786478, i32 0, metadata !147, metadata !"stream", metadata !"stream", metadata !"", metadata !90, i32 91, metadata !159, i1 false, i1 false, i32 0, i32 0, null, i32 257, i1 false, null, null, i32 0, metadata !98, i32 91} ; [ DW_TAG_subprogram ]
!159 = metadata !{i32 786453, i32 0, metadata !"", i32 0, i32 0, i64 0, i64 0, i64 0, i32 0, null, metadata !160, i32 0, i32 0} ; [ DW_TAG_subroutine_type ]
!160 = metadata !{null, metadata !154, metadata !161}
!161 = metadata !{i32 786448, null, null, null, i32 0, i64 0, i64 0, i64 0, i32 0, metadata !162} ; [ DW_TAG_reference_type ]
!162 = metadata !{i32 786470, null, metadata !"", null, i32 0, i64 0, i64 0, i64 0, i32 0, metadata !147} ; [ DW_TAG_const_type ]
!163 = metadata !{i32 786478, i32 0, metadata !147, metadata !"operator=", metadata !"operator=", metadata !"_ZN3hls6streamIiEaSERKS1_", metadata !90, i32 94, metadata !164, i1 false, i1 false, i32 0, i32 0, null, i32 257, i1 false, null, null, i32 0, metadata !98, i32 94} ; [ DW_TAG_subprogram ]
!164 = metadata !{i32 786453, i32 0, metadata !"", i32 0, i32 0, i64 0, i64 0, i64 0, i32 0, null, metadata !165, i32 0, i32 0} ; [ DW_TAG_subroutine_type ]
!165 = metadata !{metadata !146, metadata !154, metadata !161}
!166 = metadata !{i32 786478, i32 0, metadata !147, metadata !"operator>>", metadata !"operator>>", metadata !"_ZN3hls6streamIiErsERi", metadata !90, i32 101, metadata !167, i1 false, i1 false, i32 0, i32 0, null, i32 256, i1 false, null, null, i32 0, metadata !98, i32 101} ; [ DW_TAG_subprogram ]
!167 = metadata !{i32 786453, i32 0, metadata !"", i32 0, i32 0, i64 0, i64 0, i64 0, i32 0, null, metadata !168, i32 0, i32 0} ; [ DW_TAG_subroutine_type ]
!168 = metadata !{null, metadata !154, metadata !169}
!169 = metadata !{i32 786448, null, null, null, i32 0, i64 0, i64 0, i64 0, i32 0, metadata !150} ; [ DW_TAG_reference_type ]
!170 = metadata !{i32 786478, i32 0, metadata !147, metadata !"operator<<", metadata !"operator<<", metadata !"_ZN3hls6streamIiElsERKi", metadata !90, i32 105, metadata !171, i1 false, i1 false, i32 0, i32 0, null, i32 256, i1 false, null, null, i32 0, metadata !98, i32 105} ; [ DW_TAG_subprogram ]
!171 = metadata !{i32 786453, i32 0, metadata !"", i32 0, i32 0, i64 0, i64 0, i64 0, i32 0, null, metadata !172, i32 0, i32 0} ; [ DW_TAG_subroutine_type ]
!172 = metadata !{null, metadata !154, metadata !173}
!173 = metadata !{i32 786448, null, null, null, i32 0, i64 0, i64 0, i64 0, i32 0, metadata !174} ; [ DW_TAG_reference_type ]
!174 = metadata !{i32 786470, null, metadata !"", null, i32 0, i64 0, i64 0, i64 0, i32 0, metadata !150} ; [ DW_TAG_const_type ]
!175 = metadata !{i32 786478, i32 0, metadata !147, metadata !"empty", metadata !"empty", metadata !"_ZNK3hls6streamIiE5emptyEv", metadata !90, i32 112, metadata !176, i1 false, i1 false, i32 0, i32 0, null, i32 256, i1 false, null, null, i32 0, metadata !98, i32 112} ; [ DW_TAG_subprogram ]
!176 = metadata !{i32 786453, i32 0, metadata !"", i32 0, i32 0, i64 0, i64 0, i64 0, i32 0, null, metadata !177, i32 0, i32 0} ; [ DW_TAG_subroutine_type ]
!177 = metadata !{metadata !126, metadata !178}
!178 = metadata !{i32 786447, i32 0, metadata !"", i32 0, i32 0, i64 64, i64 64, i64 0, i32 64, metadata !162} ; [ DW_TAG_pointer_type ]
!179 = metadata !{i32 786478, i32 0, metadata !147, metadata !"full", metadata !"full", metadata !"_ZNK3hls6streamIiE4fullEv", metadata !90, i32 117, metadata !176, i1 false, i1 false, i32 0, i32 0, null, i32 256, i1 false, null, null, i32 0, metadata !98, i32 117} ; [ DW_TAG_subprogram ]
!180 = metadata !{i32 786478, i32 0, metadata !147, metadata !"read", metadata !"read", metadata !"_ZN3hls6streamIiE4readERi", metadata !90, i32 123, metadata !167, i1 false, i1 false, i32 0, i32 0, null, i32 256, i1 false, null, null, i32 0, metadata !98, i32 123} ; [ DW_TAG_subprogram ]
!181 = metadata !{i32 786478, i32 0, metadata !147, metadata !"read", metadata !"read", metadata !"_ZN3hls6streamIiE4readEv", metadata !90, i32 129, metadata !182, i1 false, i1 false, i32 0, i32 0, null, i32 256, i1 false, null, null, i32 0, metadata !98, i32 129} ; [ DW_TAG_subprogram ]
!182 = metadata !{i32 786453, i32 0, metadata !"", i32 0, i32 0, i64 0, i64 0, i64 0, i32 0, null, metadata !183, i32 0, i32 0} ; [ DW_TAG_subroutine_type ]
!183 = metadata !{metadata !150, metadata !154}
!184 = metadata !{i32 786478, i32 0, metadata !147, metadata !"read_nb", metadata !"read_nb", metadata !"_ZN3hls6streamIiE7read_nbERi", metadata !90, i32 136, metadata !185, i1 false, i1 false, i32 0, i32 0, null, i32 256, i1 false, null, null, i32 0, metadata !98, i32 136} ; [ DW_TAG_subprogram ]
!185 = metadata !{i32 786453, i32 0, metadata !"", i32 0, i32 0, i64 0, i64 0, i64 0, i32 0, null, metadata !186, i32 0, i32 0} ; [ DW_TAG_subroutine_type ]
!186 = metadata !{metadata !126, metadata !154, metadata !169}
!187 = metadata !{i32 786478, i32 0, metadata !147, metadata !"write", metadata !"write", metadata !"_ZN3hls6streamIiE5writeERKi", metadata !90, i32 144, metadata !171, i1 false, i1 false, i32 0, i32 0, null, i32 256, i1 false, null, null, i32 0, metadata !98, i32 144} ; [ DW_TAG_subprogram ]
!188 = metadata !{i32 786478, i32 0, metadata !147, metadata !"write_nb", metadata !"write_nb", metadata !"_ZN3hls6streamIiE8write_nbERKi", metadata !90, i32 150, metadata !189, i1 false, i1 false, i32 0, i32 0, null, i32 256, i1 false, null, null, i32 0, metadata !98, i32 150} ; [ DW_TAG_subprogram ]
!189 = metadata !{i32 786453, i32 0, metadata !"", i32 0, i32 0, i64 0, i64 0, i64 0, i32 0, null, metadata !190, i32 0, i32 0} ; [ DW_TAG_subroutine_type ]
!190 = metadata !{metadata !126, metadata !154, metadata !173}
!191 = metadata !{i32 786478, i32 0, metadata !147, metadata !"size", metadata !"size", metadata !"_ZN3hls6streamIiE4sizeEv", metadata !90, i32 157, metadata !192, i1 false, i1 false, i32 0, i32 0, null, i32 256, i1 false, null, null, i32 0, metadata !98, i32 157} ; [ DW_TAG_subprogram ]
!192 = metadata !{i32 786453, i32 0, metadata !"", i32 0, i32 0, i64 0, i64 0, i64 0, i32 0, null, metadata !193, i32 0, i32 0} ; [ DW_TAG_subroutine_type ]
!193 = metadata !{metadata !143, metadata !154}
!194 = metadata !{metadata !195}
!195 = metadata !{i32 786479, null, metadata !"__STREAM_T__", metadata !150, null, i32 0, i32 0} ; [ DW_TAG_template_type_parameter ]
!196 = metadata !{i32 786454, null, metadata !"uint16_t", metadata !197, i32 49, i64 0, i64 0, i64 0, i32 0, metadata !198} ; [ DW_TAG_typedef ]
!197 = metadata !{i32 786473, metadata !"bytestrm_dwordproc.cpp", metadata !"/home/vkchcp0030/Documents/learn_hls/hls_stream/hls_stream", null} ; [ DW_TAG_file_type ]
!198 = metadata !{i32 786468, null, metadata !"unsigned short", null, i32 0, i64 16, i64 16, i64 0, i32 0, i32 7} ; [ DW_TAG_base_type ]
!199 = metadata !{metadata !200, metadata !201, metadata !202}
!200 = metadata !{i32 786479, null, metadata !"T", metadata !150, null, i32 0, i32 0} ; [ DW_TAG_template_type_parameter ]
!201 = metadata !{i32 786480, null, metadata !"NB", metadata !93, i64 4, null, i32 0, i32 0} ; [ DW_TAG_template_value_parameter ]
!202 = metadata !{i32 786480, null, metadata !"BS", metadata !126, i64 0, null, i32 0, i32 0} ; [ DW_TAG_template_value_parameter ]
!203 = metadata !{i32 786447, null, metadata !"", null, i32 0, i64 0, i64 0, i64 0, i32 0, metadata !204} ; [ DW_TAG_pointer_type ]
!204 = metadata !{i32 786438, metadata !89, metadata !"stream<unsigned char>", metadata !90, i32 79, i64 8, i64 8, i32 0, i32 0, null, metadata !205, i32 0, null, metadata !144} ; [ DW_TAG_class_field_type ]
!205 = metadata !{metadata !92}
!206 = metadata !{i32 129, i32 4, metadata !207, null}
!207 = metadata !{i32 786443, metadata !208, i32 107, i32 1, metadata !197, i32 0} ; [ DW_TAG_lexical_block ]
!208 = metadata !{i32 786478, i32 0, metadata !197, metadata !"bytestrm_dwordproc", metadata !"bytestrm_dwordproc", metadata !"_Z18bytestrm_dwordprocRN3hls6streamIhEES2_t", metadata !197, i32 102, metadata !209, i1 false, i1 true, i32 0, i32 0, null, i32 256, i1 false, null, null, null, metadata !98, i32 107} ; [ DW_TAG_subprogram ]
!209 = metadata !{i32 786453, i32 0, metadata !"", i32 0, i32 0, i64 0, i64 0, i64 0, i32 0, null, metadata !210, i32 0, i32 0} ; [ DW_TAG_subroutine_type ]
!210 = metadata !{null, metadata !211, metadata !211, metadata !196}
!211 = metadata !{i32 786448, null, null, null, i32 0, i64 0, i64 0, i64 0, i32 0, metadata !212} ; [ DW_TAG_reference_type ]
!212 = metadata !{i32 786434, metadata !89, metadata !"stream<unsigned char>", metadata !90, i32 79, i64 8, i64 8, i32 0, i32 0, null, metadata !213, i32 0, null, metadata !144} ; [ DW_TAG_class_type ]
!213 = metadata !{metadata !214, metadata !215, metadata !219, metadata !222, metadata !227, metadata !230, metadata !233, metadata !236, metadata !240, metadata !241, metadata !242, metadata !245, metadata !248, metadata !249, metadata !252}
!214 = metadata !{i32 786445, metadata !212, metadata !"V", metadata !90, i32 163, i64 8, i64 8, i64 0, i32 0, metadata !93} ; [ DW_TAG_member ]
!215 = metadata !{i32 786478, i32 0, metadata !212, metadata !"stream", metadata !"stream", metadata !"", metadata !90, i32 83, metadata !216, i1 false, i1 false, i32 0, i32 0, null, i32 256, i1 false, null, null, i32 0, metadata !98, i32 83} ; [ DW_TAG_subprogram ]
!216 = metadata !{i32 786453, i32 0, metadata !"", i32 0, i32 0, i64 0, i64 0, i64 0, i32 0, null, metadata !217, i32 0, i32 0} ; [ DW_TAG_subroutine_type ]
!217 = metadata !{null, metadata !218}
!218 = metadata !{i32 786447, i32 0, metadata !"", i32 0, i32 0, i64 64, i64 64, i64 0, i32 64, metadata !212} ; [ DW_TAG_pointer_type ]
!219 = metadata !{i32 786478, i32 0, metadata !212, metadata !"stream", metadata !"stream", metadata !"", metadata !90, i32 86, metadata !220, i1 false, i1 false, i32 0, i32 0, null, i32 256, i1 false, null, null, i32 0, metadata !98, i32 86} ; [ DW_TAG_subprogram ]
!220 = metadata !{i32 786453, i32 0, metadata !"", i32 0, i32 0, i64 0, i64 0, i64 0, i32 0, null, metadata !221, i32 0, i32 0} ; [ DW_TAG_subroutine_type ]
!221 = metadata !{null, metadata !218, metadata !103}
!222 = metadata !{i32 786478, i32 0, metadata !212, metadata !"stream", metadata !"stream", metadata !"", metadata !90, i32 91, metadata !223, i1 false, i1 false, i32 0, i32 0, null, i32 257, i1 false, null, null, i32 0, metadata !98, i32 91} ; [ DW_TAG_subprogram ]
!223 = metadata !{i32 786453, i32 0, metadata !"", i32 0, i32 0, i64 0, i64 0, i64 0, i32 0, null, metadata !224, i32 0, i32 0} ; [ DW_TAG_subroutine_type ]
!224 = metadata !{null, metadata !218, metadata !225}
!225 = metadata !{i32 786448, null, null, null, i32 0, i64 0, i64 0, i64 0, i32 0, metadata !226} ; [ DW_TAG_reference_type ]
!226 = metadata !{i32 786470, null, metadata !"", null, i32 0, i64 0, i64 0, i64 0, i32 0, metadata !212} ; [ DW_TAG_const_type ]
!227 = metadata !{i32 786478, i32 0, metadata !212, metadata !"operator=", metadata !"operator=", metadata !"_ZN3hls6streamIhEaSERKS1_", metadata !90, i32 94, metadata !228, i1 false, i1 false, i32 0, i32 0, null, i32 257, i1 false, null, null, i32 0, metadata !98, i32 94} ; [ DW_TAG_subprogram ]
!228 = metadata !{i32 786453, i32 0, metadata !"", i32 0, i32 0, i64 0, i64 0, i64 0, i32 0, null, metadata !229, i32 0, i32 0} ; [ DW_TAG_subroutine_type ]
!229 = metadata !{metadata !211, metadata !218, metadata !225}
!230 = metadata !{i32 786478, i32 0, metadata !212, metadata !"operator>>", metadata !"operator>>", metadata !"_ZN3hls6streamIhErsERh", metadata !90, i32 101, metadata !231, i1 false, i1 false, i32 0, i32 0, null, i32 256, i1 false, null, null, i32 0, metadata !98, i32 101} ; [ DW_TAG_subprogram ]
!231 = metadata !{i32 786453, i32 0, metadata !"", i32 0, i32 0, i64 0, i64 0, i64 0, i32 0, null, metadata !232, i32 0, i32 0} ; [ DW_TAG_subroutine_type ]
!232 = metadata !{null, metadata !218, metadata !117}
!233 = metadata !{i32 786478, i32 0, metadata !212, metadata !"operator<<", metadata !"operator<<", metadata !"_ZN3hls6streamIhElsERKh", metadata !90, i32 105, metadata !234, i1 false, i1 false, i32 0, i32 0, null, i32 256, i1 false, null, null, i32 0, metadata !98, i32 105} ; [ DW_TAG_subprogram ]
!234 = metadata !{i32 786453, i32 0, metadata !"", i32 0, i32 0, i64 0, i64 0, i64 0, i32 0, null, metadata !235, i32 0, i32 0} ; [ DW_TAG_subroutine_type ]
!235 = metadata !{null, metadata !218, metadata !121}
!236 = metadata !{i32 786478, i32 0, metadata !212, metadata !"empty", metadata !"empty", metadata !"_ZNK3hls6streamIhE5emptyEv", metadata !90, i32 112, metadata !237, i1 false, i1 false, i32 0, i32 0, null, i32 256, i1 false, null, null, i32 0, metadata !98, i32 112} ; [ DW_TAG_subprogram ]
!237 = metadata !{i32 786453, i32 0, metadata !"", i32 0, i32 0, i64 0, i64 0, i64 0, i32 0, null, metadata !238, i32 0, i32 0} ; [ DW_TAG_subroutine_type ]
!238 = metadata !{metadata !126, metadata !239}
!239 = metadata !{i32 786447, i32 0, metadata !"", i32 0, i32 0, i64 64, i64 64, i64 0, i32 64, metadata !226} ; [ DW_TAG_pointer_type ]
!240 = metadata !{i32 786478, i32 0, metadata !212, metadata !"full", metadata !"full", metadata !"_ZNK3hls6streamIhE4fullEv", metadata !90, i32 117, metadata !237, i1 false, i1 false, i32 0, i32 0, null, i32 256, i1 false, null, null, i32 0, metadata !98, i32 117} ; [ DW_TAG_subprogram ]
!241 = metadata !{i32 786478, i32 0, metadata !212, metadata !"read", metadata !"read", metadata !"_ZN3hls6streamIhE4readERh", metadata !90, i32 123, metadata !231, i1 false, i1 false, i32 0, i32 0, null, i32 256, i1 false, null, null, i32 0, metadata !98, i32 123} ; [ DW_TAG_subprogram ]
!242 = metadata !{i32 786478, i32 0, metadata !212, metadata !"read", metadata !"read", metadata !"_ZN3hls6streamIhE4readEv", metadata !90, i32 129, metadata !243, i1 false, i1 false, i32 0, i32 0, null, i32 256, i1 false, null, null, i32 0, metadata !98, i32 129} ; [ DW_TAG_subprogram ]
!243 = metadata !{i32 786453, i32 0, metadata !"", i32 0, i32 0, i64 0, i64 0, i64 0, i32 0, null, metadata !244, i32 0, i32 0} ; [ DW_TAG_subroutine_type ]
!244 = metadata !{metadata !93, metadata !218}
!245 = metadata !{i32 786478, i32 0, metadata !212, metadata !"read_nb", metadata !"read_nb", metadata !"_ZN3hls6streamIhE7read_nbERh", metadata !90, i32 136, metadata !246, i1 false, i1 false, i32 0, i32 0, null, i32 256, i1 false, null, null, i32 0, metadata !98, i32 136} ; [ DW_TAG_subprogram ]
!246 = metadata !{i32 786453, i32 0, metadata !"", i32 0, i32 0, i64 0, i64 0, i64 0, i32 0, null, metadata !247, i32 0, i32 0} ; [ DW_TAG_subroutine_type ]
!247 = metadata !{metadata !126, metadata !218, metadata !117}
!248 = metadata !{i32 786478, i32 0, metadata !212, metadata !"write", metadata !"write", metadata !"_ZN3hls6streamIhE5writeERKh", metadata !90, i32 144, metadata !234, i1 false, i1 false, i32 0, i32 0, null, i32 256, i1 false, null, null, i32 0, metadata !98, i32 144} ; [ DW_TAG_subprogram ]
!249 = metadata !{i32 786478, i32 0, metadata !212, metadata !"write_nb", metadata !"write_nb", metadata !"_ZN3hls6streamIhE8write_nbERKh", metadata !90, i32 150, metadata !250, i1 false, i1 false, i32 0, i32 0, null, i32 256, i1 false, null, null, i32 0, metadata !98, i32 150} ; [ DW_TAG_subprogram ]
!250 = metadata !{i32 786453, i32 0, metadata !"", i32 0, i32 0, i64 0, i64 0, i64 0, i32 0, null, metadata !251, i32 0, i32 0} ; [ DW_TAG_subroutine_type ]
!251 = metadata !{metadata !126, metadata !218, metadata !121}
!252 = metadata !{i32 786478, i32 0, metadata !212, metadata !"size", metadata !"size", metadata !"_ZN3hls6streamIhE4sizeEv", metadata !90, i32 157, metadata !253, i1 false, i1 false, i32 0, i32 0, null, i32 256, i1 false, null, null, i32 0, metadata !98, i32 157} ; [ DW_TAG_subprogram ]
!253 = metadata !{i32 786453, i32 0, metadata !"", i32 0, i32 0, i64 0, i64 0, i64 0, i32 0, null, metadata !254, i32 0, i32 0} ; [ DW_TAG_subroutine_type ]
!254 = metadata !{metadata !143, metadata !218}
!255 = metadata !{i32 134, i32 29, metadata !83, metadata !206}
!256 = metadata !{i32 790531, metadata !257, metadata !"words_in.V", null, i32 135, metadata !258, i32 0, metadata !206} ; [ DW_TAG_arg_variable_field ]
!257 = metadata !{i32 786689, metadata !83, metadata !"words_in", metadata !84, i32 33554567, metadata !146, i32 0, i32 0} ; [ DW_TAG_arg_variable ]
!258 = metadata !{i32 786447, null, metadata !"", null, i32 0, i64 0, i64 0, i64 0, i32 0, metadata !259} ; [ DW_TAG_pointer_type ]
!259 = metadata !{i32 786438, metadata !89, metadata !"stream<int>", metadata !90, i32 79, i64 32, i64 32, i32 0, i32 0, null, metadata !260, i32 0, null, metadata !194} ; [ DW_TAG_class_field_type ]
!260 = metadata !{metadata !149}
!261 = metadata !{i32 135, i32 23, metadata !83, metadata !206}
!262 = metadata !{i32 786689, metadata !83, metadata !"bytestrm_len", metadata !84, i32 50331784, metadata !196, i32 0, metadata !206} ; [ DW_TAG_arg_variable ]
!263 = metadata !{i32 136, i32 16, metadata !83, metadata !206}
!264 = metadata !{i32 143, i32 18, metadata !265, metadata !206}
!265 = metadata !{i32 786443, metadata !266, i32 143, i32 4, metadata !84, i32 2} ; [ DW_TAG_lexical_block ]
!266 = metadata !{i32 786443, metadata !83, i32 138, i32 1, metadata !84, i32 1} ; [ DW_TAG_lexical_block ]
!267 = metadata !{i32 143, i32 43, metadata !265, metadata !206}
!268 = metadata !{i32 143, i32 49, metadata !269, metadata !206}
!269 = metadata !{i32 786443, metadata !265, i32 143, i32 48, metadata !84, i32 3} ; [ DW_TAG_lexical_block ]
!270 = metadata !{i32 144, i32 1, metadata !269, metadata !206}
!271 = metadata !{i32 145, i32 2, metadata !269, metadata !206}
!272 = metadata !{i32 790531, metadata !273, metadata !"stream<int>.V", null, i32 123, metadata !276, i32 0, metadata !277} ; [ DW_TAG_arg_variable_field ]
!273 = metadata !{i32 786689, metadata !274, metadata !"this", metadata !90, i32 16777339, metadata !275, i32 64, i32 0} ; [ DW_TAG_arg_variable ]
!274 = metadata !{i32 786478, i32 0, metadata !89, metadata !"read", metadata !"read", metadata !"_ZN3hls6streamIiE4readERi", metadata !90, i32 123, metadata !167, i1 false, i1 true, i32 0, i32 0, null, i32 256, i1 false, null, null, metadata !180, metadata !98, i32 123} ; [ DW_TAG_subprogram ]
!275 = metadata !{i32 786447, null, metadata !"", null, i32 0, i64 64, i64 64, i64 0, i32 0, metadata !147} ; [ DW_TAG_pointer_type ]
!276 = metadata !{i32 786447, null, metadata !"", null, i32 0, i64 64, i64 64, i64 0, i32 0, metadata !259} ; [ DW_TAG_pointer_type ]
!277 = metadata !{i32 146, i32 10, metadata !278, metadata !206}
!278 = metadata !{i32 786443, metadata !269, i32 145, i32 18, metadata !84, i32 4} ; [ DW_TAG_lexical_block ]
!279 = metadata !{i32 123, i32 48, metadata !274, metadata !277}
!280 = metadata !{i32 125, i32 9, metadata !281, metadata !277}
!281 = metadata !{i32 786443, metadata !274, i32 123, i32 73, metadata !90, i32 34} ; [ DW_TAG_lexical_block ]
!282 = metadata !{i32 786688, metadata !281, metadata !"tmp", metadata !90, i32 124, metadata !150, i32 0, i32 0} ; [ DW_TAG_auto_variable ]
!283 = metadata !{i32 786688, metadata !266, metadata !"inval", metadata !84, i32 139, metadata !150, i32 0, metadata !277} ; [ DW_TAG_auto_variable ]
!284 = metadata !{i32 126, i32 9, metadata !281, metadata !277}
!285 = metadata !{i32 786689, metadata !286, metadata !"val", metadata !287, i32 33554684, metadata !150, i32 0, metadata !1592} ; [ DW_TAG_arg_variable ]
!286 = metadata !{i32 786478, i32 0, null, metadata !"ap_uint", metadata !"ap_uint", metadata !"_ZN7ap_uintILi32EEC1Ei", metadata !287, i32 252, metadata !288, i1 false, i1 true, i32 0, i32 0, null, i32 256, i1 false, null, null, metadata !1545, metadata !98, i32 252} ; [ DW_TAG_subprogram ]
!287 = metadata !{i32 786473, metadata !"/opt/Xilinx/Vivado_HLS/2017.2/common/technology/autopilot/ap_int.h", metadata !"/home/vkchcp0030/Documents/learn_hls/hls_stream/hls_stream", null} ; [ DW_TAG_file_type ]
!288 = metadata !{i32 786453, i32 0, metadata !"", i32 0, i32 0, i64 0, i64 0, i64 0, i32 0, null, metadata !289, i32 0, i32 0} ; [ DW_TAG_subroutine_type ]
!289 = metadata !{null, metadata !290, metadata !150}
!290 = metadata !{i32 786447, i32 0, metadata !"", i32 0, i32 0, i64 64, i64 64, i64 0, i32 64, metadata !291} ; [ DW_TAG_pointer_type ]
!291 = metadata !{i32 786434, null, metadata !"ap_uint<32>", metadata !287, i32 182, i64 32, i64 32, i32 0, i32 0, null, metadata !292, i32 0, null, metadata !1591} ; [ DW_TAG_class_type ]
!292 = metadata !{metadata !293, metadata !1513, metadata !1516, metadata !1521, metadata !1527, metadata !1530, metadata !1533, metadata !1536, metadata !1539, metadata !1542, metadata !1545, metadata !1546, metadata !1549, metadata !1552, metadata !1555, metadata !1558, metadata !1561, metadata !1564, metadata !1567, metadata !1570, metadata !1573, metadata !1576, metadata !1580, metadata !1583, metadata !1587, metadata !1590}
!293 = metadata !{i32 786460, metadata !291, null, metadata !287, i32 0, i64 0, i64 0, i64 0, i32 0, metadata !294} ; [ DW_TAG_inheritance ]
!294 = metadata !{i32 786434, null, metadata !"ap_int_base<32, false, true>", metadata !295, i32 1398, i64 32, i64 32, i32 0, i32 0, null, metadata !296, i32 0, null, metadata !1512} ; [ DW_TAG_class_type ]
!295 = metadata !{i32 786473, metadata !"/opt/Xilinx/Vivado_HLS/2017.2/common/technology/autopilot/ap_int_syn.h", metadata !"/home/vkchcp0030/Documents/learn_hls/hls_stream/hls_stream", null} ; [ DW_TAG_file_type ]
!296 = metadata !{metadata !297, metadata !315, metadata !319, metadata !327, metadata !1199, metadata !1202, metadata !1208, metadata !1211, metadata !1214, metadata !1217, metadata !1220, metadata !1223, metadata !1226, metadata !1229, metadata !1232, metadata !1235, metadata !1238, metadata !1241, metadata !1244, metadata !1247, metadata !1250, metadata !1253, metadata !1256, metadata !1259, metadata !1262, metadata !1266, metadata !1269, metadata !1272, metadata !1275, metadata !1278, metadata !1279, metadata !1283, metadata !1286, metadata !1289, metadata !1292, metadata !1295, metadata !1298, metadata !1301, metadata !1304, metadata !1307, metadata !1310, metadata !1313, metadata !1316, metadata !1319, metadata !1322, metadata !1330, metadata !1333, metadata !1336, metadata !1339, metadata !1342, metadata !1345, metadata !1348, metadata !1351, metadata !1354, metadata !1357, metadata !1360, metadata !1363, metadata !1366, metadata !1367, metadata !1371, metadata !1374, metadata !1375, metadata !1376, metadata !1377, metadata !1378, metadata !1379, metadata !1382, metadata !1383, metadata !1386, metadata !1387, metadata !1388, metadata !1389, metadata !1390, metadata !1391, metadata !1394, metadata !1395, metadata !1396, metadata !1399, metadata !1400, metadata !1403, metadata !1404, metadata !1407, metadata !1411, metadata !1412, metadata !1413, metadata !1414, metadata !1475, metadata !1476, metadata !1479, metadata !1480, metadata !1484, metadata !1485, metadata !1486, metadata !1487, metadata !1490, metadata !1491, metadata !1492, metadata !1493, metadata !1494, metadata !1495, metadata !1496, metadata !1497, metadata !1498, metadata !1499, metadata !1500, metadata !1501, metadata !1504, metadata !1507, metadata !1510, metadata !1511}
!297 = metadata !{i32 786460, metadata !294, null, metadata !295, i32 0, i64 0, i64 0, i64 0, i32 0, metadata !298} ; [ DW_TAG_inheritance ]
!298 = metadata !{i32 786434, null, metadata !"ssdm_int<32 + 1024 * 0, false>", metadata !299, i32 34, i64 32, i64 32, i32 0, i32 0, null, metadata !300, i32 0, null, metadata !312} ; [ DW_TAG_class_type ]
!299 = metadata !{i32 786473, metadata !"/opt/Xilinx/Vivado_HLS/2017.2/common/technology/autopilot/etc/autopilot_dt.def", metadata !"/home/vkchcp0030/Documents/learn_hls/hls_stream/hls_stream", null} ; [ DW_TAG_file_type ]
!300 = metadata !{metadata !301, metadata !303, metadata !307}
!301 = metadata !{i32 786445, metadata !298, metadata !"V", metadata !299, i32 34, i64 32, i64 32, i64 0, i32 0, metadata !302} ; [ DW_TAG_member ]
!302 = metadata !{i32 786468, null, metadata !"uint32", null, i32 0, i64 32, i64 32, i64 0, i32 0, i32 7} ; [ DW_TAG_base_type ]
!303 = metadata !{i32 786478, i32 0, metadata !298, metadata !"ssdm_int", metadata !"ssdm_int", metadata !"", metadata !299, i32 34, metadata !304, i1 false, i1 false, i32 0, i32 0, null, i32 256, i1 false, null, null, i32 0, metadata !98, i32 34} ; [ DW_TAG_subprogram ]
!304 = metadata !{i32 786453, i32 0, metadata !"", i32 0, i32 0, i64 0, i64 0, i64 0, i32 0, null, metadata !305, i32 0, i32 0} ; [ DW_TAG_subroutine_type ]
!305 = metadata !{null, metadata !306}
!306 = metadata !{i32 786447, i32 0, metadata !"", i32 0, i32 0, i64 64, i64 64, i64 0, i32 64, metadata !298} ; [ DW_TAG_pointer_type ]
!307 = metadata !{i32 786478, i32 0, metadata !298, metadata !"ssdm_int", metadata !"ssdm_int", metadata !"", metadata !299, i32 34, metadata !308, i1 false, i1 false, i32 0, i32 0, null, i32 320, i1 false, null, null, i32 0, metadata !98, i32 34} ; [ DW_TAG_subprogram ]
!308 = metadata !{i32 786453, i32 0, metadata !"", i32 0, i32 0, i64 0, i64 0, i64 0, i32 0, null, metadata !309, i32 0, i32 0} ; [ DW_TAG_subroutine_type ]
!309 = metadata !{null, metadata !306, metadata !310}
!310 = metadata !{i32 786448, null, null, null, i32 0, i64 0, i64 0, i64 0, i32 0, metadata !311} ; [ DW_TAG_reference_type ]
!311 = metadata !{i32 786470, null, metadata !"", null, i32 0, i64 0, i64 0, i64 0, i32 0, metadata !298} ; [ DW_TAG_const_type ]
!312 = metadata !{metadata !313, metadata !314}
!313 = metadata !{i32 786480, null, metadata !"_AP_N", metadata !150, i64 32, null, i32 0, i32 0} ; [ DW_TAG_template_value_parameter ]
!314 = metadata !{i32 786480, null, metadata !"_AP_S", metadata !126, i64 0, null, i32 0, i32 0} ; [ DW_TAG_template_value_parameter ]
!315 = metadata !{i32 786478, i32 0, metadata !294, metadata !"ap_int_base", metadata !"ap_int_base", metadata !"", metadata !295, i32 1439, metadata !316, i1 false, i1 false, i32 0, i32 0, null, i32 256, i1 false, null, null, i32 0, metadata !98, i32 1439} ; [ DW_TAG_subprogram ]
!316 = metadata !{i32 786453, i32 0, metadata !"", i32 0, i32 0, i64 0, i64 0, i64 0, i32 0, null, metadata !317, i32 0, i32 0} ; [ DW_TAG_subroutine_type ]
!317 = metadata !{null, metadata !318}
!318 = metadata !{i32 786447, i32 0, metadata !"", i32 0, i32 0, i64 64, i64 64, i64 0, i32 64, metadata !294} ; [ DW_TAG_pointer_type ]
!319 = metadata !{i32 786478, i32 0, metadata !294, metadata !"ap_int_base<32, false>", metadata !"ap_int_base<32, false>", metadata !"", metadata !295, i32 1451, metadata !320, i1 false, i1 false, i32 0, i32 0, null, i32 256, i1 false, null, metadata !324, i32 0, metadata !98, i32 1451} ; [ DW_TAG_subprogram ]
!320 = metadata !{i32 786453, i32 0, metadata !"", i32 0, i32 0, i64 0, i64 0, i64 0, i32 0, null, metadata !321, i32 0, i32 0} ; [ DW_TAG_subroutine_type ]
!321 = metadata !{null, metadata !318, metadata !322}
!322 = metadata !{i32 786448, null, null, null, i32 0, i64 0, i64 0, i64 0, i32 0, metadata !323} ; [ DW_TAG_reference_type ]
!323 = metadata !{i32 786470, null, metadata !"", null, i32 0, i64 0, i64 0, i64 0, i32 0, metadata !294} ; [ DW_TAG_const_type ]
!324 = metadata !{metadata !325, metadata !326}
!325 = metadata !{i32 786480, null, metadata !"_AP_W2", metadata !150, i64 32, null, i32 0, i32 0} ; [ DW_TAG_template_value_parameter ]
!326 = metadata !{i32 786480, null, metadata !"_AP_S2", metadata !126, i64 0, null, i32 0, i32 0} ; [ DW_TAG_template_value_parameter ]
!327 = metadata !{i32 786478, i32 0, metadata !294, metadata !"ap_int_base<33, true>", metadata !"ap_int_base<33, true>", metadata !"", metadata !295, i32 1451, metadata !328, i1 false, i1 false, i32 0, i32 0, null, i32 256, i1 false, null, metadata !635, i32 0, metadata !98, i32 1451} ; [ DW_TAG_subprogram ]
!328 = metadata !{i32 786453, i32 0, metadata !"", i32 0, i32 0, i64 0, i64 0, i64 0, i32 0, null, metadata !329, i32 0, i32 0} ; [ DW_TAG_subroutine_type ]
!329 = metadata !{null, metadata !318, metadata !330}
!330 = metadata !{i32 786448, null, null, null, i32 0, i64 0, i64 0, i64 0, i32 0, metadata !331} ; [ DW_TAG_reference_type ]
!331 = metadata !{i32 786470, null, metadata !"", null, i32 0, i64 0, i64 0, i64 0, i32 0, metadata !332} ; [ DW_TAG_const_type ]
!332 = metadata !{i32 786434, null, metadata !"ap_int_base<33, true, true>", metadata !295, i32 1398, i64 64, i64 64, i32 0, i32 0, null, metadata !333, i32 0, null, metadata !1198} ; [ DW_TAG_class_type ]
!333 = metadata !{metadata !334, metadata !351, metadata !355, metadata !632, metadata !638, metadata !927, metadata !930, metadata !936, metadata !939, metadata !942, metadata !945, metadata !948, metadata !951, metadata !954, metadata !957, metadata !960, metadata !963, metadata !966, metadata !969, metadata !972, metadata !975, metadata !978, metadata !981, metadata !984, metadata !987, metadata !991, metadata !994, metadata !997, metadata !998, metadata !1002, metadata !1005, metadata !1008, metadata !1011, metadata !1014, metadata !1017, metadata !1020, metadata !1023, metadata !1026, metadata !1029, metadata !1032, metadata !1035, metadata !1044, metadata !1047, metadata !1050, metadata !1053, metadata !1056, metadata !1059, metadata !1062, metadata !1065, metadata !1068, metadata !1071, metadata !1074, metadata !1077, metadata !1080, metadata !1081, metadata !1085, metadata !1088, metadata !1089, metadata !1090, metadata !1091, metadata !1092, metadata !1093, metadata !1096, metadata !1097, metadata !1100, metadata !1101, metadata !1102, metadata !1103, metadata !1104, metadata !1105, metadata !1108, metadata !1109, metadata !1110, metadata !1113, metadata !1114, metadata !1117, metadata !1118, metadata !1122, metadata !1126, metadata !1127, metadata !1130, metadata !1131, metadata !1170, metadata !1171, metadata !1172, metadata !1173, metadata !1176, metadata !1177, metadata !1178, metadata !1179, metadata !1180, metadata !1181, metadata !1182, metadata !1183, metadata !1184, metadata !1185, metadata !1186, metadata !1187, metadata !1190, metadata !1193, metadata !1196, metadata !1197}
!334 = metadata !{i32 786460, metadata !332, null, metadata !295, i32 0, i64 0, i64 0, i64 0, i32 0, metadata !335} ; [ DW_TAG_inheritance ]
!335 = metadata !{i32 786434, null, metadata !"ssdm_int<33 + 1024 * 0, true>", metadata !299, i32 35, i64 64, i64 64, i32 0, i32 0, null, metadata !336, i32 0, null, metadata !348} ; [ DW_TAG_class_type ]
!336 = metadata !{metadata !337, metadata !339, metadata !343}
!337 = metadata !{i32 786445, metadata !335, metadata !"V", metadata !299, i32 35, i64 33, i64 64, i64 0, i32 0, metadata !338} ; [ DW_TAG_member ]
!338 = metadata !{i32 786468, null, metadata !"int33", null, i32 0, i64 33, i64 64, i64 0, i32 0, i32 5} ; [ DW_TAG_base_type ]
!339 = metadata !{i32 786478, i32 0, metadata !335, metadata !"ssdm_int", metadata !"ssdm_int", metadata !"", metadata !299, i32 35, metadata !340, i1 false, i1 false, i32 0, i32 0, null, i32 256, i1 false, null, null, i32 0, metadata !98, i32 35} ; [ DW_TAG_subprogram ]
!340 = metadata !{i32 786453, i32 0, metadata !"", i32 0, i32 0, i64 0, i64 0, i64 0, i32 0, null, metadata !341, i32 0, i32 0} ; [ DW_TAG_subroutine_type ]
!341 = metadata !{null, metadata !342}
!342 = metadata !{i32 786447, i32 0, metadata !"", i32 0, i32 0, i64 64, i64 64, i64 0, i32 64, metadata !335} ; [ DW_TAG_pointer_type ]
!343 = metadata !{i32 786478, i32 0, metadata !335, metadata !"ssdm_int", metadata !"ssdm_int", metadata !"", metadata !299, i32 35, metadata !344, i1 false, i1 false, i32 0, i32 0, null, i32 320, i1 false, null, null, i32 0, metadata !98, i32 35} ; [ DW_TAG_subprogram ]
!344 = metadata !{i32 786453, i32 0, metadata !"", i32 0, i32 0, i64 0, i64 0, i64 0, i32 0, null, metadata !345, i32 0, i32 0} ; [ DW_TAG_subroutine_type ]
!345 = metadata !{null, metadata !342, metadata !346}
!346 = metadata !{i32 786448, null, null, null, i32 0, i64 0, i64 0, i64 0, i32 0, metadata !347} ; [ DW_TAG_reference_type ]
!347 = metadata !{i32 786470, null, metadata !"", null, i32 0, i64 0, i64 0, i64 0, i32 0, metadata !335} ; [ DW_TAG_const_type ]
!348 = metadata !{metadata !349, metadata !350}
!349 = metadata !{i32 786480, null, metadata !"_AP_N", metadata !150, i64 33, null, i32 0, i32 0} ; [ DW_TAG_template_value_parameter ]
!350 = metadata !{i32 786480, null, metadata !"_AP_S", metadata !126, i64 1, null, i32 0, i32 0} ; [ DW_TAG_template_value_parameter ]
!351 = metadata !{i32 786478, i32 0, metadata !332, metadata !"ap_int_base", metadata !"ap_int_base", metadata !"", metadata !295, i32 1439, metadata !352, i1 false, i1 false, i32 0, i32 0, null, i32 256, i1 false, null, null, i32 0, metadata !98, i32 1439} ; [ DW_TAG_subprogram ]
!352 = metadata !{i32 786453, i32 0, metadata !"", i32 0, i32 0, i64 0, i64 0, i64 0, i32 0, null, metadata !353, i32 0, i32 0} ; [ DW_TAG_subroutine_type ]
!353 = metadata !{null, metadata !354}
!354 = metadata !{i32 786447, i32 0, metadata !"", i32 0, i32 0, i64 64, i64 64, i64 0, i32 64, metadata !332} ; [ DW_TAG_pointer_type ]
!355 = metadata !{i32 786478, i32 0, metadata !332, metadata !"ap_int_base<1, false>", metadata !"ap_int_base<1, false>", metadata !"", metadata !295, i32 1451, metadata !356, i1 false, i1 false, i32 0, i32 0, null, i32 256, i1 false, null, metadata !380, i32 0, metadata !98, i32 1451} ; [ DW_TAG_subprogram ]
!356 = metadata !{i32 786453, i32 0, metadata !"", i32 0, i32 0, i64 0, i64 0, i64 0, i32 0, null, metadata !357, i32 0, i32 0} ; [ DW_TAG_subroutine_type ]
!357 = metadata !{null, metadata !354, metadata !358}
!358 = metadata !{i32 786448, null, null, null, i32 0, i64 0, i64 0, i64 0, i32 0, metadata !359} ; [ DW_TAG_reference_type ]
!359 = metadata !{i32 786470, null, metadata !"", null, i32 0, i64 0, i64 0, i64 0, i32 0, metadata !360} ; [ DW_TAG_const_type ]
!360 = metadata !{i32 786434, null, metadata !"ap_int_base<1, false, true>", metadata !295, i32 1398, i64 8, i64 8, i32 0, i32 0, null, metadata !361, i32 0, null, metadata !629} ; [ DW_TAG_class_type ]
!361 = metadata !{metadata !362, metadata !373, metadata !377, metadata !382, metadata !388, metadata !391, metadata !395, metadata !398, metadata !402, metadata !405, metadata !408, metadata !411, metadata !415, metadata !419, metadata !424, metadata !429, metadata !434, metadata !438, metadata !442, metadata !445, metadata !448, metadata !452, metadata !455, metadata !458, metadata !459, metadata !463, metadata !466, metadata !469, metadata !472, metadata !475, metadata !478, metadata !481, metadata !484, metadata !487, metadata !490, metadata !493, metadata !496, metadata !504, metadata !507, metadata !510, metadata !513, metadata !516, metadata !519, metadata !522, metadata !525, metadata !528, metadata !531, metadata !534, metadata !537, metadata !540, metadata !541, metadata !545, metadata !548, metadata !549, metadata !550, metadata !551, metadata !552, metadata !553, metadata !556, metadata !557, metadata !560, metadata !561, metadata !562, metadata !563, metadata !564, metadata !565, metadata !568, metadata !569, metadata !570, metadata !573, metadata !574, metadata !577, metadata !578, metadata !582, metadata !586, metadata !587, metadata !590, metadata !591, metadata !595, metadata !596, metadata !597, metadata !598, metadata !601, metadata !602, metadata !603, metadata !604, metadata !605, metadata !606, metadata !607, metadata !608, metadata !609, metadata !610, metadata !611, metadata !612, metadata !622, metadata !625, metadata !628}
!362 = metadata !{i32 786460, metadata !360, null, metadata !295, i32 0, i64 0, i64 0, i64 0, i32 0, metadata !363} ; [ DW_TAG_inheritance ]
!363 = metadata !{i32 786434, null, metadata !"ssdm_int<1 + 1024 * 0, false>", metadata !299, i32 3, i64 8, i64 8, i32 0, i32 0, null, metadata !364, i32 0, null, metadata !371} ; [ DW_TAG_class_type ]
!364 = metadata !{metadata !365, metadata !367}
!365 = metadata !{i32 786445, metadata !363, metadata !"V", metadata !299, i32 3, i64 1, i64 1, i64 0, i32 0, metadata !366} ; [ DW_TAG_member ]
!366 = metadata !{i32 786468, null, metadata !"uint1", null, i32 0, i64 1, i64 1, i64 0, i32 0, i32 7} ; [ DW_TAG_base_type ]
!367 = metadata !{i32 786478, i32 0, metadata !363, metadata !"ssdm_int", metadata !"ssdm_int", metadata !"", metadata !299, i32 3, metadata !368, i1 false, i1 false, i32 0, i32 0, null, i32 256, i1 false, null, null, i32 0, metadata !98, i32 3} ; [ DW_TAG_subprogram ]
!368 = metadata !{i32 786453, i32 0, metadata !"", i32 0, i32 0, i64 0, i64 0, i64 0, i32 0, null, metadata !369, i32 0, i32 0} ; [ DW_TAG_subroutine_type ]
!369 = metadata !{null, metadata !370}
!370 = metadata !{i32 786447, i32 0, metadata !"", i32 0, i32 0, i64 64, i64 64, i64 0, i32 64, metadata !363} ; [ DW_TAG_pointer_type ]
!371 = metadata !{metadata !372, metadata !314}
!372 = metadata !{i32 786480, null, metadata !"_AP_N", metadata !150, i64 1, null, i32 0, i32 0} ; [ DW_TAG_template_value_parameter ]
!373 = metadata !{i32 786478, i32 0, metadata !360, metadata !"ap_int_base", metadata !"ap_int_base", metadata !"", metadata !295, i32 1439, metadata !374, i1 false, i1 false, i32 0, i32 0, null, i32 256, i1 false, null, null, i32 0, metadata !98, i32 1439} ; [ DW_TAG_subprogram ]
!374 = metadata !{i32 786453, i32 0, metadata !"", i32 0, i32 0, i64 0, i64 0, i64 0, i32 0, null, metadata !375, i32 0, i32 0} ; [ DW_TAG_subroutine_type ]
!375 = metadata !{null, metadata !376}
!376 = metadata !{i32 786447, i32 0, metadata !"", i32 0, i32 0, i64 64, i64 64, i64 0, i32 64, metadata !360} ; [ DW_TAG_pointer_type ]
!377 = metadata !{i32 786478, i32 0, metadata !360, metadata !"ap_int_base<1, false>", metadata !"ap_int_base<1, false>", metadata !"", metadata !295, i32 1451, metadata !378, i1 false, i1 false, i32 0, i32 0, null, i32 256, i1 false, null, metadata !380, i32 0, metadata !98, i32 1451} ; [ DW_TAG_subprogram ]
!378 = metadata !{i32 786453, i32 0, metadata !"", i32 0, i32 0, i64 0, i64 0, i64 0, i32 0, null, metadata !379, i32 0, i32 0} ; [ DW_TAG_subroutine_type ]
!379 = metadata !{null, metadata !376, metadata !358}
!380 = metadata !{metadata !381, metadata !326}
!381 = metadata !{i32 786480, null, metadata !"_AP_W2", metadata !150, i64 1, null, i32 0, i32 0} ; [ DW_TAG_template_value_parameter ]
!382 = metadata !{i32 786478, i32 0, metadata !360, metadata !"ap_int_base<1, false>", metadata !"ap_int_base<1, false>", metadata !"", metadata !295, i32 1454, metadata !383, i1 false, i1 false, i32 0, i32 0, null, i32 256, i1 false, null, metadata !380, i32 0, metadata !98, i32 1454} ; [ DW_TAG_subprogram ]
!383 = metadata !{i32 786453, i32 0, metadata !"", i32 0, i32 0, i64 0, i64 0, i64 0, i32 0, null, metadata !384, i32 0, i32 0} ; [ DW_TAG_subroutine_type ]
!384 = metadata !{null, metadata !376, metadata !385}
!385 = metadata !{i32 786448, null, null, null, i32 0, i64 0, i64 0, i64 0, i32 0, metadata !386} ; [ DW_TAG_reference_type ]
!386 = metadata !{i32 786470, null, metadata !"", null, i32 0, i64 0, i64 0, i64 0, i32 0, metadata !387} ; [ DW_TAG_const_type ]
!387 = metadata !{i32 786485, null, metadata !"", null, i32 0, i64 0, i64 0, i64 0, i32 0, metadata !360} ; [ DW_TAG_volatile_type ]
!388 = metadata !{i32 786478, i32 0, metadata !360, metadata !"ap_int_base", metadata !"ap_int_base", metadata !"", metadata !295, i32 1461, metadata !389, i1 false, i1 false, i32 0, i32 0, null, i32 384, i1 false, null, null, i32 0, metadata !98, i32 1461} ; [ DW_TAG_subprogram ]
!389 = metadata !{i32 786453, i32 0, metadata !"", i32 0, i32 0, i64 0, i64 0, i64 0, i32 0, null, metadata !390, i32 0, i32 0} ; [ DW_TAG_subroutine_type ]
!390 = metadata !{null, metadata !376, metadata !126}
!391 = metadata !{i32 786478, i32 0, metadata !360, metadata !"ap_int_base", metadata !"ap_int_base", metadata !"", metadata !295, i32 1462, metadata !392, i1 false, i1 false, i32 0, i32 0, null, i32 384, i1 false, null, null, i32 0, metadata !98, i32 1462} ; [ DW_TAG_subprogram ]
!392 = metadata !{i32 786453, i32 0, metadata !"", i32 0, i32 0, i64 0, i64 0, i64 0, i32 0, null, metadata !393, i32 0, i32 0} ; [ DW_TAG_subroutine_type ]
!393 = metadata !{null, metadata !376, metadata !394}
!394 = metadata !{i32 786468, null, metadata !"signed char", null, i32 0, i64 8, i64 8, i64 0, i32 0, i32 6} ; [ DW_TAG_base_type ]
!395 = metadata !{i32 786478, i32 0, metadata !360, metadata !"ap_int_base", metadata !"ap_int_base", metadata !"", metadata !295, i32 1463, metadata !396, i1 false, i1 false, i32 0, i32 0, null, i32 384, i1 false, null, null, i32 0, metadata !98, i32 1463} ; [ DW_TAG_subprogram ]
!396 = metadata !{i32 786453, i32 0, metadata !"", i32 0, i32 0, i64 0, i64 0, i64 0, i32 0, null, metadata !397, i32 0, i32 0} ; [ DW_TAG_subroutine_type ]
!397 = metadata !{null, metadata !376, metadata !93}
!398 = metadata !{i32 786478, i32 0, metadata !360, metadata !"ap_int_base", metadata !"ap_int_base", metadata !"", metadata !295, i32 1464, metadata !399, i1 false, i1 false, i32 0, i32 0, null, i32 384, i1 false, null, null, i32 0, metadata !98, i32 1464} ; [ DW_TAG_subprogram ]
!399 = metadata !{i32 786453, i32 0, metadata !"", i32 0, i32 0, i64 0, i64 0, i64 0, i32 0, null, metadata !400, i32 0, i32 0} ; [ DW_TAG_subroutine_type ]
!400 = metadata !{null, metadata !376, metadata !401}
!401 = metadata !{i32 786468, null, metadata !"short", null, i32 0, i64 16, i64 16, i64 0, i32 0, i32 5} ; [ DW_TAG_base_type ]
!402 = metadata !{i32 786478, i32 0, metadata !360, metadata !"ap_int_base", metadata !"ap_int_base", metadata !"", metadata !295, i32 1465, metadata !403, i1 false, i1 false, i32 0, i32 0, null, i32 384, i1 false, null, null, i32 0, metadata !98, i32 1465} ; [ DW_TAG_subprogram ]
!403 = metadata !{i32 786453, i32 0, metadata !"", i32 0, i32 0, i64 0, i64 0, i64 0, i32 0, null, metadata !404, i32 0, i32 0} ; [ DW_TAG_subroutine_type ]
!404 = metadata !{null, metadata !376, metadata !198}
!405 = metadata !{i32 786478, i32 0, metadata !360, metadata !"ap_int_base", metadata !"ap_int_base", metadata !"", metadata !295, i32 1466, metadata !406, i1 false, i1 false, i32 0, i32 0, null, i32 384, i1 false, null, null, i32 0, metadata !98, i32 1466} ; [ DW_TAG_subprogram ]
!406 = metadata !{i32 786453, i32 0, metadata !"", i32 0, i32 0, i64 0, i64 0, i64 0, i32 0, null, metadata !407, i32 0, i32 0} ; [ DW_TAG_subroutine_type ]
!407 = metadata !{null, metadata !376, metadata !150}
!408 = metadata !{i32 786478, i32 0, metadata !360, metadata !"ap_int_base", metadata !"ap_int_base", metadata !"", metadata !295, i32 1467, metadata !409, i1 false, i1 false, i32 0, i32 0, null, i32 384, i1 false, null, null, i32 0, metadata !98, i32 1467} ; [ DW_TAG_subprogram ]
!409 = metadata !{i32 786453, i32 0, metadata !"", i32 0, i32 0, i64 0, i64 0, i64 0, i32 0, null, metadata !410, i32 0, i32 0} ; [ DW_TAG_subroutine_type ]
!410 = metadata !{null, metadata !376, metadata !143}
!411 = metadata !{i32 786478, i32 0, metadata !360, metadata !"ap_int_base", metadata !"ap_int_base", metadata !"", metadata !295, i32 1468, metadata !412, i1 false, i1 false, i32 0, i32 0, null, i32 384, i1 false, null, null, i32 0, metadata !98, i32 1468} ; [ DW_TAG_subprogram ]
!412 = metadata !{i32 786453, i32 0, metadata !"", i32 0, i32 0, i64 0, i64 0, i64 0, i32 0, null, metadata !413, i32 0, i32 0} ; [ DW_TAG_subroutine_type ]
!413 = metadata !{null, metadata !376, metadata !414}
!414 = metadata !{i32 786468, null, metadata !"long int", null, i32 0, i64 64, i64 64, i64 0, i32 0, i32 5} ; [ DW_TAG_base_type ]
!415 = metadata !{i32 786478, i32 0, metadata !360, metadata !"ap_int_base", metadata !"ap_int_base", metadata !"", metadata !295, i32 1469, metadata !416, i1 false, i1 false, i32 0, i32 0, null, i32 384, i1 false, null, null, i32 0, metadata !98, i32 1469} ; [ DW_TAG_subprogram ]
!416 = metadata !{i32 786453, i32 0, metadata !"", i32 0, i32 0, i64 0, i64 0, i64 0, i32 0, null, metadata !417, i32 0, i32 0} ; [ DW_TAG_subroutine_type ]
!417 = metadata !{null, metadata !376, metadata !418}
!418 = metadata !{i32 786468, null, metadata !"long unsigned int", null, i32 0, i64 64, i64 64, i64 0, i32 0, i32 7} ; [ DW_TAG_base_type ]
!419 = metadata !{i32 786478, i32 0, metadata !360, metadata !"ap_int_base", metadata !"ap_int_base", metadata !"", metadata !295, i32 1470, metadata !420, i1 false, i1 false, i32 0, i32 0, null, i32 384, i1 false, null, null, i32 0, metadata !98, i32 1470} ; [ DW_TAG_subprogram ]
!420 = metadata !{i32 786453, i32 0, metadata !"", i32 0, i32 0, i64 0, i64 0, i64 0, i32 0, null, metadata !421, i32 0, i32 0} ; [ DW_TAG_subroutine_type ]
!421 = metadata !{null, metadata !376, metadata !422}
!422 = metadata !{i32 786454, null, metadata !"ap_slong", metadata !295, i32 112, i64 0, i64 0, i64 0, i32 0, metadata !423} ; [ DW_TAG_typedef ]
!423 = metadata !{i32 786468, null, metadata !"long long int", null, i32 0, i64 64, i64 64, i64 0, i32 0, i32 5} ; [ DW_TAG_base_type ]
!424 = metadata !{i32 786478, i32 0, metadata !360, metadata !"ap_int_base", metadata !"ap_int_base", metadata !"", metadata !295, i32 1471, metadata !425, i1 false, i1 false, i32 0, i32 0, null, i32 384, i1 false, null, null, i32 0, metadata !98, i32 1471} ; [ DW_TAG_subprogram ]
!425 = metadata !{i32 786453, i32 0, metadata !"", i32 0, i32 0, i64 0, i64 0, i64 0, i32 0, null, metadata !426, i32 0, i32 0} ; [ DW_TAG_subroutine_type ]
!426 = metadata !{null, metadata !376, metadata !427}
!427 = metadata !{i32 786454, null, metadata !"ap_ulong", metadata !295, i32 111, i64 0, i64 0, i64 0, i32 0, metadata !428} ; [ DW_TAG_typedef ]
!428 = metadata !{i32 786468, null, metadata !"long long unsigned int", null, i32 0, i64 64, i64 64, i64 0, i32 0, i32 7} ; [ DW_TAG_base_type ]
!429 = metadata !{i32 786478, i32 0, metadata !360, metadata !"ap_int_base", metadata !"ap_int_base", metadata !"", metadata !295, i32 1472, metadata !430, i1 false, i1 false, i32 0, i32 0, null, i32 384, i1 false, null, null, i32 0, metadata !98, i32 1472} ; [ DW_TAG_subprogram ]
!430 = metadata !{i32 786453, i32 0, metadata !"", i32 0, i32 0, i64 0, i64 0, i64 0, i32 0, null, metadata !431, i32 0, i32 0} ; [ DW_TAG_subroutine_type ]
!431 = metadata !{null, metadata !376, metadata !432}
!432 = metadata !{i32 786454, null, metadata !"half", metadata !295, i32 54, i64 0, i64 0, i64 0, i32 0, metadata !433} ; [ DW_TAG_typedef ]
!433 = metadata !{i32 786468, null, metadata !"half", null, i32 0, i64 16, i64 16, i64 0, i32 0, i32 4} ; [ DW_TAG_base_type ]
!434 = metadata !{i32 786478, i32 0, metadata !360, metadata !"ap_int_base", metadata !"ap_int_base", metadata !"", metadata !295, i32 1473, metadata !435, i1 false, i1 false, i32 0, i32 0, null, i32 384, i1 false, null, null, i32 0, metadata !98, i32 1473} ; [ DW_TAG_subprogram ]
!435 = metadata !{i32 786453, i32 0, metadata !"", i32 0, i32 0, i64 0, i64 0, i64 0, i32 0, null, metadata !436, i32 0, i32 0} ; [ DW_TAG_subroutine_type ]
!436 = metadata !{null, metadata !376, metadata !437}
!437 = metadata !{i32 786468, null, metadata !"float", null, i32 0, i64 32, i64 32, i64 0, i32 0, i32 4} ; [ DW_TAG_base_type ]
!438 = metadata !{i32 786478, i32 0, metadata !360, metadata !"ap_int_base", metadata !"ap_int_base", metadata !"", metadata !295, i32 1474, metadata !439, i1 false, i1 false, i32 0, i32 0, null, i32 384, i1 false, null, null, i32 0, metadata !98, i32 1474} ; [ DW_TAG_subprogram ]
!439 = metadata !{i32 786453, i32 0, metadata !"", i32 0, i32 0, i64 0, i64 0, i64 0, i32 0, null, metadata !440, i32 0, i32 0} ; [ DW_TAG_subroutine_type ]
!440 = metadata !{null, metadata !376, metadata !441}
!441 = metadata !{i32 786468, null, metadata !"double", null, i32 0, i64 64, i64 64, i64 0, i32 0, i32 4} ; [ DW_TAG_base_type ]
!442 = metadata !{i32 786478, i32 0, metadata !360, metadata !"ap_int_base", metadata !"ap_int_base", metadata !"", metadata !295, i32 1501, metadata !443, i1 false, i1 false, i32 0, i32 0, null, i32 256, i1 false, null, null, i32 0, metadata !98, i32 1501} ; [ DW_TAG_subprogram ]
!443 = metadata !{i32 786453, i32 0, metadata !"", i32 0, i32 0, i64 0, i64 0, i64 0, i32 0, null, metadata !444, i32 0, i32 0} ; [ DW_TAG_subroutine_type ]
!444 = metadata !{null, metadata !376, metadata !103}
!445 = metadata !{i32 786478, i32 0, metadata !360, metadata !"ap_int_base", metadata !"ap_int_base", metadata !"", metadata !295, i32 1508, metadata !446, i1 false, i1 false, i32 0, i32 0, null, i32 256, i1 false, null, null, i32 0, metadata !98, i32 1508} ; [ DW_TAG_subprogram ]
!446 = metadata !{i32 786453, i32 0, metadata !"", i32 0, i32 0, i64 0, i64 0, i64 0, i32 0, null, metadata !447, i32 0, i32 0} ; [ DW_TAG_subroutine_type ]
!447 = metadata !{null, metadata !376, metadata !103, metadata !394}
!448 = metadata !{i32 786478, i32 0, metadata !360, metadata !"read", metadata !"read", metadata !"_ZNV11ap_int_baseILi1ELb0ELb1EE4readEv", metadata !295, i32 1529, metadata !449, i1 false, i1 false, i32 0, i32 0, null, i32 256, i1 false, null, null, i32 0, metadata !98, i32 1529} ; [ DW_TAG_subprogram ]
!449 = metadata !{i32 786453, i32 0, metadata !"", i32 0, i32 0, i64 0, i64 0, i64 0, i32 0, null, metadata !450, i32 0, i32 0} ; [ DW_TAG_subroutine_type ]
!450 = metadata !{metadata !360, metadata !451}
!451 = metadata !{i32 786447, i32 0, metadata !"", i32 0, i32 0, i64 64, i64 64, i64 0, i32 64, metadata !387} ; [ DW_TAG_pointer_type ]
!452 = metadata !{i32 786478, i32 0, metadata !360, metadata !"write", metadata !"write", metadata !"_ZNV11ap_int_baseILi1ELb0ELb1EE5writeERKS0_", metadata !295, i32 1535, metadata !453, i1 false, i1 false, i32 0, i32 0, null, i32 256, i1 false, null, null, i32 0, metadata !98, i32 1535} ; [ DW_TAG_subprogram ]
!453 = metadata !{i32 786453, i32 0, metadata !"", i32 0, i32 0, i64 0, i64 0, i64 0, i32 0, null, metadata !454, i32 0, i32 0} ; [ DW_TAG_subroutine_type ]
!454 = metadata !{null, metadata !451, metadata !358}
!455 = metadata !{i32 786478, i32 0, metadata !360, metadata !"operator=", metadata !"operator=", metadata !"_ZNV11ap_int_baseILi1ELb0ELb1EEaSERVKS0_", metadata !295, i32 1547, metadata !456, i1 false, i1 false, i32 0, i32 0, null, i32 256, i1 false, null, null, i32 0, metadata !98, i32 1547} ; [ DW_TAG_subprogram ]
!456 = metadata !{i32 786453, i32 0, metadata !"", i32 0, i32 0, i64 0, i64 0, i64 0, i32 0, null, metadata !457, i32 0, i32 0} ; [ DW_TAG_subroutine_type ]
!457 = metadata !{null, metadata !451, metadata !385}
!458 = metadata !{i32 786478, i32 0, metadata !360, metadata !"operator=", metadata !"operator=", metadata !"_ZNV11ap_int_baseILi1ELb0ELb1EEaSERKS0_", metadata !295, i32 1556, metadata !453, i1 false, i1 false, i32 0, i32 0, null, i32 256, i1 false, null, null, i32 0, metadata !98, i32 1556} ; [ DW_TAG_subprogram ]
!459 = metadata !{i32 786478, i32 0, metadata !360, metadata !"operator=", metadata !"operator=", metadata !"_ZN11ap_int_baseILi1ELb0ELb1EEaSERVKS0_", metadata !295, i32 1579, metadata !460, i1 false, i1 false, i32 0, i32 0, null, i32 256, i1 false, null, null, i32 0, metadata !98, i32 1579} ; [ DW_TAG_subprogram ]
!460 = metadata !{i32 786453, i32 0, metadata !"", i32 0, i32 0, i64 0, i64 0, i64 0, i32 0, null, metadata !461, i32 0, i32 0} ; [ DW_TAG_subroutine_type ]
!461 = metadata !{metadata !462, metadata !376, metadata !385}
!462 = metadata !{i32 786448, null, null, null, i32 0, i64 0, i64 0, i64 0, i32 0, metadata !360} ; [ DW_TAG_reference_type ]
!463 = metadata !{i32 786478, i32 0, metadata !360, metadata !"operator=", metadata !"operator=", metadata !"_ZN11ap_int_baseILi1ELb0ELb1EEaSERKS0_", metadata !295, i32 1584, metadata !464, i1 false, i1 false, i32 0, i32 0, null, i32 256, i1 false, null, null, i32 0, metadata !98, i32 1584} ; [ DW_TAG_subprogram ]
!464 = metadata !{i32 786453, i32 0, metadata !"", i32 0, i32 0, i64 0, i64 0, i64 0, i32 0, null, metadata !465, i32 0, i32 0} ; [ DW_TAG_subroutine_type ]
!465 = metadata !{metadata !462, metadata !376, metadata !358}
!466 = metadata !{i32 786478, i32 0, metadata !360, metadata !"operator=", metadata !"operator=", metadata !"_ZN11ap_int_baseILi1ELb0ELb1EEaSEPKc", metadata !295, i32 1588, metadata !467, i1 false, i1 false, i32 0, i32 0, null, i32 256, i1 false, null, null, i32 0, metadata !98, i32 1588} ; [ DW_TAG_subprogram ]
!467 = metadata !{i32 786453, i32 0, metadata !"", i32 0, i32 0, i64 0, i64 0, i64 0, i32 0, null, metadata !468, i32 0, i32 0} ; [ DW_TAG_subroutine_type ]
!468 = metadata !{metadata !462, metadata !376, metadata !103}
!469 = metadata !{i32 786478, i32 0, metadata !360, metadata !"set", metadata !"set", metadata !"_ZN11ap_int_baseILi1ELb0ELb1EE3setEPKca", metadata !295, i32 1596, metadata !470, i1 false, i1 false, i32 0, i32 0, null, i32 256, i1 false, null, null, i32 0, metadata !98, i32 1596} ; [ DW_TAG_subprogram ]
!470 = metadata !{i32 786453, i32 0, metadata !"", i32 0, i32 0, i64 0, i64 0, i64 0, i32 0, null, metadata !471, i32 0, i32 0} ; [ DW_TAG_subroutine_type ]
!471 = metadata !{metadata !462, metadata !376, metadata !103, metadata !394}
!472 = metadata !{i32 786478, i32 0, metadata !360, metadata !"operator=", metadata !"operator=", metadata !"_ZN11ap_int_baseILi1ELb0ELb1EEaSEa", metadata !295, i32 1610, metadata !473, i1 false, i1 false, i32 0, i32 0, null, i32 256, i1 false, null, null, i32 0, metadata !98, i32 1610} ; [ DW_TAG_subprogram ]
!473 = metadata !{i32 786453, i32 0, metadata !"", i32 0, i32 0, i64 0, i64 0, i64 0, i32 0, null, metadata !474, i32 0, i32 0} ; [ DW_TAG_subroutine_type ]
!474 = metadata !{metadata !462, metadata !376, metadata !394}
!475 = metadata !{i32 786478, i32 0, metadata !360, metadata !"operator=", metadata !"operator=", metadata !"_ZN11ap_int_baseILi1ELb0ELb1EEaSEh", metadata !295, i32 1611, metadata !476, i1 false, i1 false, i32 0, i32 0, null, i32 256, i1 false, null, null, i32 0, metadata !98, i32 1611} ; [ DW_TAG_subprogram ]
!476 = metadata !{i32 786453, i32 0, metadata !"", i32 0, i32 0, i64 0, i64 0, i64 0, i32 0, null, metadata !477, i32 0, i32 0} ; [ DW_TAG_subroutine_type ]
!477 = metadata !{metadata !462, metadata !376, metadata !93}
!478 = metadata !{i32 786478, i32 0, metadata !360, metadata !"operator=", metadata !"operator=", metadata !"_ZN11ap_int_baseILi1ELb0ELb1EEaSEs", metadata !295, i32 1612, metadata !479, i1 false, i1 false, i32 0, i32 0, null, i32 256, i1 false, null, null, i32 0, metadata !98, i32 1612} ; [ DW_TAG_subprogram ]
!479 = metadata !{i32 786453, i32 0, metadata !"", i32 0, i32 0, i64 0, i64 0, i64 0, i32 0, null, metadata !480, i32 0, i32 0} ; [ DW_TAG_subroutine_type ]
!480 = metadata !{metadata !462, metadata !376, metadata !401}
!481 = metadata !{i32 786478, i32 0, metadata !360, metadata !"operator=", metadata !"operator=", metadata !"_ZN11ap_int_baseILi1ELb0ELb1EEaSEt", metadata !295, i32 1613, metadata !482, i1 false, i1 false, i32 0, i32 0, null, i32 256, i1 false, null, null, i32 0, metadata !98, i32 1613} ; [ DW_TAG_subprogram ]
!482 = metadata !{i32 786453, i32 0, metadata !"", i32 0, i32 0, i64 0, i64 0, i64 0, i32 0, null, metadata !483, i32 0, i32 0} ; [ DW_TAG_subroutine_type ]
!483 = metadata !{metadata !462, metadata !376, metadata !198}
!484 = metadata !{i32 786478, i32 0, metadata !360, metadata !"operator=", metadata !"operator=", metadata !"_ZN11ap_int_baseILi1ELb0ELb1EEaSEi", metadata !295, i32 1614, metadata !485, i1 false, i1 false, i32 0, i32 0, null, i32 256, i1 false, null, null, i32 0, metadata !98, i32 1614} ; [ DW_TAG_subprogram ]
!485 = metadata !{i32 786453, i32 0, metadata !"", i32 0, i32 0, i64 0, i64 0, i64 0, i32 0, null, metadata !486, i32 0, i32 0} ; [ DW_TAG_subroutine_type ]
!486 = metadata !{metadata !462, metadata !376, metadata !150}
!487 = metadata !{i32 786478, i32 0, metadata !360, metadata !"operator=", metadata !"operator=", metadata !"_ZN11ap_int_baseILi1ELb0ELb1EEaSEj", metadata !295, i32 1615, metadata !488, i1 false, i1 false, i32 0, i32 0, null, i32 256, i1 false, null, null, i32 0, metadata !98, i32 1615} ; [ DW_TAG_subprogram ]
!488 = metadata !{i32 786453, i32 0, metadata !"", i32 0, i32 0, i64 0, i64 0, i64 0, i32 0, null, metadata !489, i32 0, i32 0} ; [ DW_TAG_subroutine_type ]
!489 = metadata !{metadata !462, metadata !376, metadata !143}
!490 = metadata !{i32 786478, i32 0, metadata !360, metadata !"operator=", metadata !"operator=", metadata !"_ZN11ap_int_baseILi1ELb0ELb1EEaSEx", metadata !295, i32 1616, metadata !491, i1 false, i1 false, i32 0, i32 0, null, i32 256, i1 false, null, null, i32 0, metadata !98, i32 1616} ; [ DW_TAG_subprogram ]
!491 = metadata !{i32 786453, i32 0, metadata !"", i32 0, i32 0, i64 0, i64 0, i64 0, i32 0, null, metadata !492, i32 0, i32 0} ; [ DW_TAG_subroutine_type ]
!492 = metadata !{metadata !462, metadata !376, metadata !422}
!493 = metadata !{i32 786478, i32 0, metadata !360, metadata !"operator=", metadata !"operator=", metadata !"_ZN11ap_int_baseILi1ELb0ELb1EEaSEy", metadata !295, i32 1617, metadata !494, i1 false, i1 false, i32 0, i32 0, null, i32 256, i1 false, null, null, i32 0, metadata !98, i32 1617} ; [ DW_TAG_subprogram ]
!494 = metadata !{i32 786453, i32 0, metadata !"", i32 0, i32 0, i64 0, i64 0, i64 0, i32 0, null, metadata !495, i32 0, i32 0} ; [ DW_TAG_subroutine_type ]
!495 = metadata !{metadata !462, metadata !376, metadata !427}
!496 = metadata !{i32 786478, i32 0, metadata !360, metadata !"operator unsigned char", metadata !"operator unsigned char", metadata !"_ZNK11ap_int_baseILi1ELb0ELb1EEcvhEv", metadata !295, i32 1655, metadata !497, i1 false, i1 false, i32 0, i32 0, null, i32 256, i1 false, null, null, i32 0, metadata !98, i32 1655} ; [ DW_TAG_subprogram ]
!497 = metadata !{i32 786453, i32 0, metadata !"", i32 0, i32 0, i64 0, i64 0, i64 0, i32 0, null, metadata !498, i32 0, i32 0} ; [ DW_TAG_subroutine_type ]
!498 = metadata !{metadata !499, metadata !503}
!499 = metadata !{i32 786454, metadata !360, metadata !"RetType", metadata !295, i32 1403, i64 0, i64 0, i64 0, i32 0, metadata !500} ; [ DW_TAG_typedef ]
!500 = metadata !{i32 786454, metadata !501, metadata !"Type", metadata !295, i32 1371, i64 0, i64 0, i64 0, i32 0, metadata !93} ; [ DW_TAG_typedef ]
!501 = metadata !{i32 786434, null, metadata !"retval<1, false>", metadata !295, i32 1370, i64 8, i64 8, i32 0, i32 0, null, metadata !502, i32 0, null, metadata !371} ; [ DW_TAG_class_type ]
!502 = metadata !{i32 0}
!503 = metadata !{i32 786447, i32 0, metadata !"", i32 0, i32 0, i64 64, i64 64, i64 0, i32 64, metadata !359} ; [ DW_TAG_pointer_type ]
!504 = metadata !{i32 786478, i32 0, metadata !360, metadata !"to_bool", metadata !"to_bool", metadata !"_ZNK11ap_int_baseILi1ELb0ELb1EE7to_boolEv", metadata !295, i32 1661, metadata !505, i1 false, i1 false, i32 0, i32 0, null, i32 256, i1 false, null, null, i32 0, metadata !98, i32 1661} ; [ DW_TAG_subprogram ]
!505 = metadata !{i32 786453, i32 0, metadata !"", i32 0, i32 0, i64 0, i64 0, i64 0, i32 0, null, metadata !506, i32 0, i32 0} ; [ DW_TAG_subroutine_type ]
!506 = metadata !{metadata !126, metadata !503}
!507 = metadata !{i32 786478, i32 0, metadata !360, metadata !"to_uchar", metadata !"to_uchar", metadata !"_ZNK11ap_int_baseILi1ELb0ELb1EE8to_ucharEv", metadata !295, i32 1662, metadata !508, i1 false, i1 false, i32 0, i32 0, null, i32 256, i1 false, null, null, i32 0, metadata !98, i32 1662} ; [ DW_TAG_subprogram ]
!508 = metadata !{i32 786453, i32 0, metadata !"", i32 0, i32 0, i64 0, i64 0, i64 0, i32 0, null, metadata !509, i32 0, i32 0} ; [ DW_TAG_subroutine_type ]
!509 = metadata !{metadata !93, metadata !503}
!510 = metadata !{i32 786478, i32 0, metadata !360, metadata !"to_char", metadata !"to_char", metadata !"_ZNK11ap_int_baseILi1ELb0ELb1EE7to_charEv", metadata !295, i32 1663, metadata !511, i1 false, i1 false, i32 0, i32 0, null, i32 256, i1 false, null, null, i32 0, metadata !98, i32 1663} ; [ DW_TAG_subprogram ]
!511 = metadata !{i32 786453, i32 0, metadata !"", i32 0, i32 0, i64 0, i64 0, i64 0, i32 0, null, metadata !512, i32 0, i32 0} ; [ DW_TAG_subroutine_type ]
!512 = metadata !{metadata !394, metadata !503}
!513 = metadata !{i32 786478, i32 0, metadata !360, metadata !"to_ushort", metadata !"to_ushort", metadata !"_ZNK11ap_int_baseILi1ELb0ELb1EE9to_ushortEv", metadata !295, i32 1664, metadata !514, i1 false, i1 false, i32 0, i32 0, null, i32 256, i1 false, null, null, i32 0, metadata !98, i32 1664} ; [ DW_TAG_subprogram ]
!514 = metadata !{i32 786453, i32 0, metadata !"", i32 0, i32 0, i64 0, i64 0, i64 0, i32 0, null, metadata !515, i32 0, i32 0} ; [ DW_TAG_subroutine_type ]
!515 = metadata !{metadata !198, metadata !503}
!516 = metadata !{i32 786478, i32 0, metadata !360, metadata !"to_short", metadata !"to_short", metadata !"_ZNK11ap_int_baseILi1ELb0ELb1EE8to_shortEv", metadata !295, i32 1665, metadata !517, i1 false, i1 false, i32 0, i32 0, null, i32 256, i1 false, null, null, i32 0, metadata !98, i32 1665} ; [ DW_TAG_subprogram ]
!517 = metadata !{i32 786453, i32 0, metadata !"", i32 0, i32 0, i64 0, i64 0, i64 0, i32 0, null, metadata !518, i32 0, i32 0} ; [ DW_TAG_subroutine_type ]
!518 = metadata !{metadata !401, metadata !503}
!519 = metadata !{i32 786478, i32 0, metadata !360, metadata !"to_int", metadata !"to_int", metadata !"_ZNK11ap_int_baseILi1ELb0ELb1EE6to_intEv", metadata !295, i32 1666, metadata !520, i1 false, i1 false, i32 0, i32 0, null, i32 256, i1 false, null, null, i32 0, metadata !98, i32 1666} ; [ DW_TAG_subprogram ]
!520 = metadata !{i32 786453, i32 0, metadata !"", i32 0, i32 0, i64 0, i64 0, i64 0, i32 0, null, metadata !521, i32 0, i32 0} ; [ DW_TAG_subroutine_type ]
!521 = metadata !{metadata !150, metadata !503}
!522 = metadata !{i32 786478, i32 0, metadata !360, metadata !"to_uint", metadata !"to_uint", metadata !"_ZNK11ap_int_baseILi1ELb0ELb1EE7to_uintEv", metadata !295, i32 1667, metadata !523, i1 false, i1 false, i32 0, i32 0, null, i32 256, i1 false, null, null, i32 0, metadata !98, i32 1667} ; [ DW_TAG_subprogram ]
!523 = metadata !{i32 786453, i32 0, metadata !"", i32 0, i32 0, i64 0, i64 0, i64 0, i32 0, null, metadata !524, i32 0, i32 0} ; [ DW_TAG_subroutine_type ]
!524 = metadata !{metadata !143, metadata !503}
!525 = metadata !{i32 786478, i32 0, metadata !360, metadata !"to_long", metadata !"to_long", metadata !"_ZNK11ap_int_baseILi1ELb0ELb1EE7to_longEv", metadata !295, i32 1668, metadata !526, i1 false, i1 false, i32 0, i32 0, null, i32 256, i1 false, null, null, i32 0, metadata !98, i32 1668} ; [ DW_TAG_subprogram ]
!526 = metadata !{i32 786453, i32 0, metadata !"", i32 0, i32 0, i64 0, i64 0, i64 0, i32 0, null, metadata !527, i32 0, i32 0} ; [ DW_TAG_subroutine_type ]
!527 = metadata !{metadata !414, metadata !503}
!528 = metadata !{i32 786478, i32 0, metadata !360, metadata !"to_ulong", metadata !"to_ulong", metadata !"_ZNK11ap_int_baseILi1ELb0ELb1EE8to_ulongEv", metadata !295, i32 1669, metadata !529, i1 false, i1 false, i32 0, i32 0, null, i32 256, i1 false, null, null, i32 0, metadata !98, i32 1669} ; [ DW_TAG_subprogram ]
!529 = metadata !{i32 786453, i32 0, metadata !"", i32 0, i32 0, i64 0, i64 0, i64 0, i32 0, null, metadata !530, i32 0, i32 0} ; [ DW_TAG_subroutine_type ]
!530 = metadata !{metadata !418, metadata !503}
!531 = metadata !{i32 786478, i32 0, metadata !360, metadata !"to_int64", metadata !"to_int64", metadata !"_ZNK11ap_int_baseILi1ELb0ELb1EE8to_int64Ev", metadata !295, i32 1670, metadata !532, i1 false, i1 false, i32 0, i32 0, null, i32 256, i1 false, null, null, i32 0, metadata !98, i32 1670} ; [ DW_TAG_subprogram ]
!532 = metadata !{i32 786453, i32 0, metadata !"", i32 0, i32 0, i64 0, i64 0, i64 0, i32 0, null, metadata !533, i32 0, i32 0} ; [ DW_TAG_subroutine_type ]
!533 = metadata !{metadata !422, metadata !503}
!534 = metadata !{i32 786478, i32 0, metadata !360, metadata !"to_uint64", metadata !"to_uint64", metadata !"_ZNK11ap_int_baseILi1ELb0ELb1EE9to_uint64Ev", metadata !295, i32 1671, metadata !535, i1 false, i1 false, i32 0, i32 0, null, i32 256, i1 false, null, null, i32 0, metadata !98, i32 1671} ; [ DW_TAG_subprogram ]
!535 = metadata !{i32 786453, i32 0, metadata !"", i32 0, i32 0, i64 0, i64 0, i64 0, i32 0, null, metadata !536, i32 0, i32 0} ; [ DW_TAG_subroutine_type ]
!536 = metadata !{metadata !427, metadata !503}
!537 = metadata !{i32 786478, i32 0, metadata !360, metadata !"to_double", metadata !"to_double", metadata !"_ZNK11ap_int_baseILi1ELb0ELb1EE9to_doubleEv", metadata !295, i32 1672, metadata !538, i1 false, i1 false, i32 0, i32 0, null, i32 256, i1 false, null, null, i32 0, metadata !98, i32 1672} ; [ DW_TAG_subprogram ]
!538 = metadata !{i32 786453, i32 0, metadata !"", i32 0, i32 0, i64 0, i64 0, i64 0, i32 0, null, metadata !539, i32 0, i32 0} ; [ DW_TAG_subroutine_type ]
!539 = metadata !{metadata !441, metadata !503}
!540 = metadata !{i32 786478, i32 0, metadata !360, metadata !"length", metadata !"length", metadata !"_ZNK11ap_int_baseILi1ELb0ELb1EE6lengthEv", metadata !295, i32 1686, metadata !520, i1 false, i1 false, i32 0, i32 0, null, i32 256, i1 false, null, null, i32 0, metadata !98, i32 1686} ; [ DW_TAG_subprogram ]
!541 = metadata !{i32 786478, i32 0, metadata !360, metadata !"length", metadata !"length", metadata !"_ZNVK11ap_int_baseILi1ELb0ELb1EE6lengthEv", metadata !295, i32 1687, metadata !542, i1 false, i1 false, i32 0, i32 0, null, i32 256, i1 false, null, null, i32 0, metadata !98, i32 1687} ; [ DW_TAG_subprogram ]
!542 = metadata !{i32 786453, i32 0, metadata !"", i32 0, i32 0, i64 0, i64 0, i64 0, i32 0, null, metadata !543, i32 0, i32 0} ; [ DW_TAG_subroutine_type ]
!543 = metadata !{metadata !150, metadata !544}
!544 = metadata !{i32 786447, i32 0, metadata !"", i32 0, i32 0, i64 64, i64 64, i64 0, i32 64, metadata !386} ; [ DW_TAG_pointer_type ]
!545 = metadata !{i32 786478, i32 0, metadata !360, metadata !"reverse", metadata !"reverse", metadata !"_ZN11ap_int_baseILi1ELb0ELb1EE7reverseEv", metadata !295, i32 1692, metadata !546, i1 false, i1 false, i32 0, i32 0, null, i32 256, i1 false, null, null, i32 0, metadata !98, i32 1692} ; [ DW_TAG_subprogram ]
!546 = metadata !{i32 786453, i32 0, metadata !"", i32 0, i32 0, i64 0, i64 0, i64 0, i32 0, null, metadata !547, i32 0, i32 0} ; [ DW_TAG_subroutine_type ]
!547 = metadata !{metadata !462, metadata !376}
!548 = metadata !{i32 786478, i32 0, metadata !360, metadata !"iszero", metadata !"iszero", metadata !"_ZNK11ap_int_baseILi1ELb0ELb1EE6iszeroEv", metadata !295, i32 1698, metadata !505, i1 false, i1 false, i32 0, i32 0, null, i32 256, i1 false, null, null, i32 0, metadata !98, i32 1698} ; [ DW_TAG_subprogram ]
!549 = metadata !{i32 786478, i32 0, metadata !360, metadata !"is_zero", metadata !"is_zero", metadata !"_ZNK11ap_int_baseILi1ELb0ELb1EE7is_zeroEv", metadata !295, i32 1703, metadata !505, i1 false, i1 false, i32 0, i32 0, null, i32 256, i1 false, null, null, i32 0, metadata !98, i32 1703} ; [ DW_TAG_subprogram ]
!550 = metadata !{i32 786478, i32 0, metadata !360, metadata !"sign", metadata !"sign", metadata !"_ZNK11ap_int_baseILi1ELb0ELb1EE4signEv", metadata !295, i32 1708, metadata !505, i1 false, i1 false, i32 0, i32 0, null, i32 256, i1 false, null, null, i32 0, metadata !98, i32 1708} ; [ DW_TAG_subprogram ]
!551 = metadata !{i32 786478, i32 0, metadata !360, metadata !"clear", metadata !"clear", metadata !"_ZN11ap_int_baseILi1ELb0ELb1EE5clearEi", metadata !295, i32 1716, metadata !406, i1 false, i1 false, i32 0, i32 0, null, i32 256, i1 false, null, null, i32 0, metadata !98, i32 1716} ; [ DW_TAG_subprogram ]
!552 = metadata !{i32 786478, i32 0, metadata !360, metadata !"invert", metadata !"invert", metadata !"_ZN11ap_int_baseILi1ELb0ELb1EE6invertEi", metadata !295, i32 1722, metadata !406, i1 false, i1 false, i32 0, i32 0, null, i32 256, i1 false, null, null, i32 0, metadata !98, i32 1722} ; [ DW_TAG_subprogram ]
!553 = metadata !{i32 786478, i32 0, metadata !360, metadata !"test", metadata !"test", metadata !"_ZNK11ap_int_baseILi1ELb0ELb1EE4testEi", metadata !295, i32 1730, metadata !554, i1 false, i1 false, i32 0, i32 0, null, i32 256, i1 false, null, null, i32 0, metadata !98, i32 1730} ; [ DW_TAG_subprogram ]
!554 = metadata !{i32 786453, i32 0, metadata !"", i32 0, i32 0, i64 0, i64 0, i64 0, i32 0, null, metadata !555, i32 0, i32 0} ; [ DW_TAG_subroutine_type ]
!555 = metadata !{metadata !126, metadata !503, metadata !150}
!556 = metadata !{i32 786478, i32 0, metadata !360, metadata !"set", metadata !"set", metadata !"_ZN11ap_int_baseILi1ELb0ELb1EE3setEi", metadata !295, i32 1736, metadata !406, i1 false, i1 false, i32 0, i32 0, null, i32 256, i1 false, null, null, i32 0, metadata !98, i32 1736} ; [ DW_TAG_subprogram ]
!557 = metadata !{i32 786478, i32 0, metadata !360, metadata !"set", metadata !"set", metadata !"_ZN11ap_int_baseILi1ELb0ELb1EE3setEib", metadata !295, i32 1742, metadata !558, i1 false, i1 false, i32 0, i32 0, null, i32 256, i1 false, null, null, i32 0, metadata !98, i32 1742} ; [ DW_TAG_subprogram ]
!558 = metadata !{i32 786453, i32 0, metadata !"", i32 0, i32 0, i64 0, i64 0, i64 0, i32 0, null, metadata !559, i32 0, i32 0} ; [ DW_TAG_subroutine_type ]
!559 = metadata !{null, metadata !376, metadata !150, metadata !126}
!560 = metadata !{i32 786478, i32 0, metadata !360, metadata !"lrotate", metadata !"lrotate", metadata !"_ZN11ap_int_baseILi1ELb0ELb1EE7lrotateEi", metadata !295, i32 1749, metadata !406, i1 false, i1 false, i32 0, i32 0, null, i32 256, i1 false, null, null, i32 0, metadata !98, i32 1749} ; [ DW_TAG_subprogram ]
!561 = metadata !{i32 786478, i32 0, metadata !360, metadata !"rrotate", metadata !"rrotate", metadata !"_ZN11ap_int_baseILi1ELb0ELb1EE7rrotateEi", metadata !295, i32 1758, metadata !406, i1 false, i1 false, i32 0, i32 0, null, i32 256, i1 false, null, null, i32 0, metadata !98, i32 1758} ; [ DW_TAG_subprogram ]
!562 = metadata !{i32 786478, i32 0, metadata !360, metadata !"set_bit", metadata !"set_bit", metadata !"_ZN11ap_int_baseILi1ELb0ELb1EE7set_bitEib", metadata !295, i32 1766, metadata !558, i1 false, i1 false, i32 0, i32 0, null, i32 256, i1 false, null, null, i32 0, metadata !98, i32 1766} ; [ DW_TAG_subprogram ]
!563 = metadata !{i32 786478, i32 0, metadata !360, metadata !"get_bit", metadata !"get_bit", metadata !"_ZNK11ap_int_baseILi1ELb0ELb1EE7get_bitEi", metadata !295, i32 1771, metadata !554, i1 false, i1 false, i32 0, i32 0, null, i32 256, i1 false, null, null, i32 0, metadata !98, i32 1771} ; [ DW_TAG_subprogram ]
!564 = metadata !{i32 786478, i32 0, metadata !360, metadata !"b_not", metadata !"b_not", metadata !"_ZN11ap_int_baseILi1ELb0ELb1EE5b_notEv", metadata !295, i32 1776, metadata !374, i1 false, i1 false, i32 0, i32 0, null, i32 256, i1 false, null, null, i32 0, metadata !98, i32 1776} ; [ DW_TAG_subprogram ]
!565 = metadata !{i32 786478, i32 0, metadata !360, metadata !"countLeadingZeros", metadata !"countLeadingZeros", metadata !"_ZN11ap_int_baseILi1ELb0ELb1EE17countLeadingZerosEv", metadata !295, i32 1783, metadata !566, i1 false, i1 false, i32 0, i32 0, null, i32 256, i1 false, null, null, i32 0, metadata !98, i32 1783} ; [ DW_TAG_subprogram ]
!566 = metadata !{i32 786453, i32 0, metadata !"", i32 0, i32 0, i64 0, i64 0, i64 0, i32 0, null, metadata !567, i32 0, i32 0} ; [ DW_TAG_subroutine_type ]
!567 = metadata !{metadata !150, metadata !376}
!568 = metadata !{i32 786478, i32 0, metadata !360, metadata !"operator++", metadata !"operator++", metadata !"_ZN11ap_int_baseILi1ELb0ELb1EEppEv", metadata !295, i32 1840, metadata !546, i1 false, i1 false, i32 0, i32 0, null, i32 256, i1 false, null, null, i32 0, metadata !98, i32 1840} ; [ DW_TAG_subprogram ]
!569 = metadata !{i32 786478, i32 0, metadata !360, metadata !"operator--", metadata !"operator--", metadata !"_ZN11ap_int_baseILi1ELb0ELb1EEmmEv", metadata !295, i32 1844, metadata !546, i1 false, i1 false, i32 0, i32 0, null, i32 256, i1 false, null, null, i32 0, metadata !98, i32 1844} ; [ DW_TAG_subprogram ]
!570 = metadata !{i32 786478, i32 0, metadata !360, metadata !"operator++", metadata !"operator++", metadata !"_ZN11ap_int_baseILi1ELb0ELb1EEppEi", metadata !295, i32 1852, metadata !571, i1 false, i1 false, i32 0, i32 0, null, i32 256, i1 false, null, null, i32 0, metadata !98, i32 1852} ; [ DW_TAG_subprogram ]
!571 = metadata !{i32 786453, i32 0, metadata !"", i32 0, i32 0, i64 0, i64 0, i64 0, i32 0, null, metadata !572, i32 0, i32 0} ; [ DW_TAG_subroutine_type ]
!572 = metadata !{metadata !359, metadata !376, metadata !150}
!573 = metadata !{i32 786478, i32 0, metadata !360, metadata !"operator--", metadata !"operator--", metadata !"_ZN11ap_int_baseILi1ELb0ELb1EEmmEi", metadata !295, i32 1857, metadata !571, i1 false, i1 false, i32 0, i32 0, null, i32 256, i1 false, null, null, i32 0, metadata !98, i32 1857} ; [ DW_TAG_subprogram ]
!574 = metadata !{i32 786478, i32 0, metadata !360, metadata !"operator+", metadata !"operator+", metadata !"_ZNK11ap_int_baseILi1ELb0ELb1EEpsEv", metadata !295, i32 1866, metadata !575, i1 false, i1 false, i32 0, i32 0, null, i32 256, i1 false, null, null, i32 0, metadata !98, i32 1866} ; [ DW_TAG_subprogram ]
!575 = metadata !{i32 786453, i32 0, metadata !"", i32 0, i32 0, i64 0, i64 0, i64 0, i32 0, null, metadata !576, i32 0, i32 0} ; [ DW_TAG_subroutine_type ]
!576 = metadata !{metadata !360, metadata !503}
!577 = metadata !{i32 786478, i32 0, metadata !360, metadata !"operator!", metadata !"operator!", metadata !"_ZNK11ap_int_baseILi1ELb0ELb1EEntEv", metadata !295, i32 1872, metadata !505, i1 false, i1 false, i32 0, i32 0, null, i32 256, i1 false, null, null, i32 0, metadata !98, i32 1872} ; [ DW_TAG_subprogram ]
!578 = metadata !{i32 786478, i32 0, metadata !360, metadata !"operator-", metadata !"operator-", metadata !"_ZNK11ap_int_baseILi1ELb0ELb1EEngEv", metadata !295, i32 1877, metadata !579, i1 false, i1 false, i32 0, i32 0, null, i32 256, i1 false, null, null, i32 0, metadata !98, i32 1877} ; [ DW_TAG_subprogram ]
!579 = metadata !{i32 786453, i32 0, metadata !"", i32 0, i32 0, i64 0, i64 0, i64 0, i32 0, null, metadata !580, i32 0, i32 0} ; [ DW_TAG_subroutine_type ]
!580 = metadata !{metadata !581, metadata !503}
!581 = metadata !{i32 786434, null, metadata !"ap_int_base<2, true, true>", metadata !295, i32 651, i32 0, i32 0, i32 0, i32 4, null, null, i32 0} ; [ DW_TAG_class_type ]
!582 = metadata !{i32 786478, i32 0, metadata !360, metadata !"range", metadata !"range", metadata !"_ZN11ap_int_baseILi1ELb0ELb1EE5rangeEii", metadata !295, i32 2007, metadata !583, i1 false, i1 false, i32 0, i32 0, null, i32 256, i1 false, null, null, i32 0, metadata !98, i32 2007} ; [ DW_TAG_subprogram ]
!583 = metadata !{i32 786453, i32 0, metadata !"", i32 0, i32 0, i64 0, i64 0, i64 0, i32 0, null, metadata !584, i32 0, i32 0} ; [ DW_TAG_subroutine_type ]
!584 = metadata !{metadata !585, metadata !376, metadata !150, metadata !150}
!585 = metadata !{i32 786434, null, metadata !"ap_range_ref<1, false>", metadata !295, i32 924, i32 0, i32 0, i32 0, i32 4, null, null, i32 0} ; [ DW_TAG_class_type ]
!586 = metadata !{i32 786478, i32 0, metadata !360, metadata !"operator()", metadata !"operator()", metadata !"_ZN11ap_int_baseILi1ELb0ELb1EEclEii", metadata !295, i32 2013, metadata !583, i1 false, i1 false, i32 0, i32 0, null, i32 256, i1 false, null, null, i32 0, metadata !98, i32 2013} ; [ DW_TAG_subprogram ]
!587 = metadata !{i32 786478, i32 0, metadata !360, metadata !"range", metadata !"range", metadata !"_ZNK11ap_int_baseILi1ELb0ELb1EE5rangeEii", metadata !295, i32 2019, metadata !588, i1 false, i1 false, i32 0, i32 0, null, i32 256, i1 false, null, null, i32 0, metadata !98, i32 2019} ; [ DW_TAG_subprogram ]
!588 = metadata !{i32 786453, i32 0, metadata !"", i32 0, i32 0, i64 0, i64 0, i64 0, i32 0, null, metadata !589, i32 0, i32 0} ; [ DW_TAG_subroutine_type ]
!589 = metadata !{metadata !585, metadata !503, metadata !150, metadata !150}
!590 = metadata !{i32 786478, i32 0, metadata !360, metadata !"operator()", metadata !"operator()", metadata !"_ZNK11ap_int_baseILi1ELb0ELb1EEclEii", metadata !295, i32 2025, metadata !588, i1 false, i1 false, i32 0, i32 0, null, i32 256, i1 false, null, null, i32 0, metadata !98, i32 2025} ; [ DW_TAG_subprogram ]
!591 = metadata !{i32 786478, i32 0, metadata !360, metadata !"operator[]", metadata !"operator[]", metadata !"_ZN11ap_int_baseILi1ELb0ELb1EEixEi", metadata !295, i32 2044, metadata !592, i1 false, i1 false, i32 0, i32 0, null, i32 256, i1 false, null, null, i32 0, metadata !98, i32 2044} ; [ DW_TAG_subprogram ]
!592 = metadata !{i32 786453, i32 0, metadata !"", i32 0, i32 0, i64 0, i64 0, i64 0, i32 0, null, metadata !593, i32 0, i32 0} ; [ DW_TAG_subroutine_type ]
!593 = metadata !{metadata !594, metadata !376, metadata !150}
!594 = metadata !{i32 786434, null, metadata !"ap_bit_ref<1, false>", metadata !295, i32 1194, i32 0, i32 0, i32 0, i32 4, null, null, i32 0} ; [ DW_TAG_class_type ]
!595 = metadata !{i32 786478, i32 0, metadata !360, metadata !"operator[]", metadata !"operator[]", metadata !"_ZNK11ap_int_baseILi1ELb0ELb1EEixEi", metadata !295, i32 2058, metadata !554, i1 false, i1 false, i32 0, i32 0, null, i32 256, i1 false, null, null, i32 0, metadata !98, i32 2058} ; [ DW_TAG_subprogram ]
!596 = metadata !{i32 786478, i32 0, metadata !360, metadata !"bit", metadata !"bit", metadata !"_ZN11ap_int_baseILi1ELb0ELb1EE3bitEi", metadata !295, i32 2072, metadata !592, i1 false, i1 false, i32 0, i32 0, null, i32 256, i1 false, null, null, i32 0, metadata !98, i32 2072} ; [ DW_TAG_subprogram ]
!597 = metadata !{i32 786478, i32 0, metadata !360, metadata !"bit", metadata !"bit", metadata !"_ZNK11ap_int_baseILi1ELb0ELb1EE3bitEi", metadata !295, i32 2086, metadata !554, i1 false, i1 false, i32 0, i32 0, null, i32 256, i1 false, null, null, i32 0, metadata !98, i32 2086} ; [ DW_TAG_subprogram ]
!598 = metadata !{i32 786478, i32 0, metadata !360, metadata !"and_reduce", metadata !"and_reduce", metadata !"_ZN11ap_int_baseILi1ELb0ELb1EE10and_reduceEv", metadata !295, i32 2266, metadata !599, i1 false, i1 false, i32 0, i32 0, null, i32 256, i1 false, null, null, i32 0, metadata !98, i32 2266} ; [ DW_TAG_subprogram ]
!599 = metadata !{i32 786453, i32 0, metadata !"", i32 0, i32 0, i64 0, i64 0, i64 0, i32 0, null, metadata !600, i32 0, i32 0} ; [ DW_TAG_subroutine_type ]
!600 = metadata !{metadata !126, metadata !376}
!601 = metadata !{i32 786478, i32 0, metadata !360, metadata !"nand_reduce", metadata !"nand_reduce", metadata !"_ZN11ap_int_baseILi1ELb0ELb1EE11nand_reduceEv", metadata !295, i32 2269, metadata !599, i1 false, i1 false, i32 0, i32 0, null, i32 256, i1 false, null, null, i32 0, metadata !98, i32 2269} ; [ DW_TAG_subprogram ]
!602 = metadata !{i32 786478, i32 0, metadata !360, metadata !"or_reduce", metadata !"or_reduce", metadata !"_ZN11ap_int_baseILi1ELb0ELb1EE9or_reduceEv", metadata !295, i32 2272, metadata !599, i1 false, i1 false, i32 0, i32 0, null, i32 256, i1 false, null, null, i32 0, metadata !98, i32 2272} ; [ DW_TAG_subprogram ]
!603 = metadata !{i32 786478, i32 0, metadata !360, metadata !"nor_reduce", metadata !"nor_reduce", metadata !"_ZN11ap_int_baseILi1ELb0ELb1EE10nor_reduceEv", metadata !295, i32 2275, metadata !599, i1 false, i1 false, i32 0, i32 0, null, i32 256, i1 false, null, null, i32 0, metadata !98, i32 2275} ; [ DW_TAG_subprogram ]
!604 = metadata !{i32 786478, i32 0, metadata !360, metadata !"xor_reduce", metadata !"xor_reduce", metadata !"_ZN11ap_int_baseILi1ELb0ELb1EE10xor_reduceEv", metadata !295, i32 2278, metadata !599, i1 false, i1 false, i32 0, i32 0, null, i32 256, i1 false, null, null, i32 0, metadata !98, i32 2278} ; [ DW_TAG_subprogram ]
!605 = metadata !{i32 786478, i32 0, metadata !360, metadata !"xnor_reduce", metadata !"xnor_reduce", metadata !"_ZN11ap_int_baseILi1ELb0ELb1EE11xnor_reduceEv", metadata !295, i32 2281, metadata !599, i1 false, i1 false, i32 0, i32 0, null, i32 256, i1 false, null, null, i32 0, metadata !98, i32 2281} ; [ DW_TAG_subprogram ]
!606 = metadata !{i32 786478, i32 0, metadata !360, metadata !"and_reduce", metadata !"and_reduce", metadata !"_ZNK11ap_int_baseILi1ELb0ELb1EE10and_reduceEv", metadata !295, i32 2285, metadata !505, i1 false, i1 false, i32 0, i32 0, null, i32 256, i1 false, null, null, i32 0, metadata !98, i32 2285} ; [ DW_TAG_subprogram ]
!607 = metadata !{i32 786478, i32 0, metadata !360, metadata !"nand_reduce", metadata !"nand_reduce", metadata !"_ZNK11ap_int_baseILi1ELb0ELb1EE11nand_reduceEv", metadata !295, i32 2288, metadata !505, i1 false, i1 false, i32 0, i32 0, null, i32 256, i1 false, null, null, i32 0, metadata !98, i32 2288} ; [ DW_TAG_subprogram ]
!608 = metadata !{i32 786478, i32 0, metadata !360, metadata !"or_reduce", metadata !"or_reduce", metadata !"_ZNK11ap_int_baseILi1ELb0ELb1EE9or_reduceEv", metadata !295, i32 2291, metadata !505, i1 false, i1 false, i32 0, i32 0, null, i32 256, i1 false, null, null, i32 0, metadata !98, i32 2291} ; [ DW_TAG_subprogram ]
!609 = metadata !{i32 786478, i32 0, metadata !360, metadata !"nor_reduce", metadata !"nor_reduce", metadata !"_ZNK11ap_int_baseILi1ELb0ELb1EE10nor_reduceEv", metadata !295, i32 2294, metadata !505, i1 false, i1 false, i32 0, i32 0, null, i32 256, i1 false, null, null, i32 0, metadata !98, i32 2294} ; [ DW_TAG_subprogram ]
!610 = metadata !{i32 786478, i32 0, metadata !360, metadata !"xor_reduce", metadata !"xor_reduce", metadata !"_ZNK11ap_int_baseILi1ELb0ELb1EE10xor_reduceEv", metadata !295, i32 2297, metadata !505, i1 false, i1 false, i32 0, i32 0, null, i32 256, i1 false, null, null, i32 0, metadata !98, i32 2297} ; [ DW_TAG_subprogram ]
!611 = metadata !{i32 786478, i32 0, metadata !360, metadata !"xnor_reduce", metadata !"xnor_reduce", metadata !"_ZNK11ap_int_baseILi1ELb0ELb1EE11xnor_reduceEv", metadata !295, i32 2300, metadata !505, i1 false, i1 false, i32 0, i32 0, null, i32 256, i1 false, null, null, i32 0, metadata !98, i32 2300} ; [ DW_TAG_subprogram ]
!612 = metadata !{i32 786478, i32 0, metadata !360, metadata !"to_string", metadata !"to_string", metadata !"_ZNK11ap_int_baseILi1ELb0ELb1EE9to_stringEPci8BaseModeb", metadata !295, i32 2307, metadata !613, i1 false, i1 false, i32 0, i32 0, null, i32 256, i1 false, null, null, i32 0, metadata !98, i32 2307} ; [ DW_TAG_subprogram ]
!613 = metadata !{i32 786453, i32 0, metadata !"", i32 0, i32 0, i64 0, i64 0, i64 0, i32 0, null, metadata !614, i32 0, i32 0} ; [ DW_TAG_subroutine_type ]
!614 = metadata !{null, metadata !503, metadata !615, metadata !150, metadata !616, metadata !126}
!615 = metadata !{i32 786447, null, metadata !"", null, i32 0, i64 64, i64 64, i64 0, i32 0, metadata !105} ; [ DW_TAG_pointer_type ]
!616 = metadata !{i32 786436, null, metadata !"BaseMode", metadata !295, i32 603, i64 5, i64 8, i32 0, i32 0, null, metadata !617, i32 0, i32 0} ; [ DW_TAG_enumeration_type ]
!617 = metadata !{metadata !618, metadata !619, metadata !620, metadata !621}
!618 = metadata !{i32 786472, metadata !"SC_BIN", i64 2} ; [ DW_TAG_enumerator ]
!619 = metadata !{i32 786472, metadata !"SC_OCT", i64 8} ; [ DW_TAG_enumerator ]
!620 = metadata !{i32 786472, metadata !"SC_DEC", i64 10} ; [ DW_TAG_enumerator ]
!621 = metadata !{i32 786472, metadata !"SC_HEX", i64 16} ; [ DW_TAG_enumerator ]
!622 = metadata !{i32 786478, i32 0, metadata !360, metadata !"to_string", metadata !"to_string", metadata !"_ZNK11ap_int_baseILi1ELb0ELb1EE9to_stringE8BaseModeb", metadata !295, i32 2334, metadata !623, i1 false, i1 false, i32 0, i32 0, null, i32 256, i1 false, null, null, i32 0, metadata !98, i32 2334} ; [ DW_TAG_subprogram ]
!623 = metadata !{i32 786453, i32 0, metadata !"", i32 0, i32 0, i64 0, i64 0, i64 0, i32 0, null, metadata !624, i32 0, i32 0} ; [ DW_TAG_subroutine_type ]
!624 = metadata !{metadata !615, metadata !503, metadata !616, metadata !126}
!625 = metadata !{i32 786478, i32 0, metadata !360, metadata !"to_string", metadata !"to_string", metadata !"_ZNK11ap_int_baseILi1ELb0ELb1EE9to_stringEab", metadata !295, i32 2338, metadata !626, i1 false, i1 false, i32 0, i32 0, null, i32 256, i1 false, null, null, i32 0, metadata !98, i32 2338} ; [ DW_TAG_subprogram ]
!626 = metadata !{i32 786453, i32 0, metadata !"", i32 0, i32 0, i64 0, i64 0, i64 0, i32 0, null, metadata !627, i32 0, i32 0} ; [ DW_TAG_subroutine_type ]
!627 = metadata !{metadata !615, metadata !503, metadata !394, metadata !126}
!628 = metadata !{i32 786478, i32 0, metadata !360, metadata !"~ap_int_base", metadata !"~ap_int_base", metadata !"", metadata !295, i32 1398, metadata !374, i1 false, i1 false, i32 0, i32 0, null, i32 320, i1 false, null, null, i32 0, metadata !98, i32 1398} ; [ DW_TAG_subprogram ]
!629 = metadata !{metadata !630, metadata !314, metadata !631}
!630 = metadata !{i32 786480, null, metadata !"_AP_W", metadata !150, i64 1, null, i32 0, i32 0} ; [ DW_TAG_template_value_parameter ]
!631 = metadata !{i32 786480, null, metadata !"_AP_C", metadata !126, i64 1, null, i32 0, i32 0} ; [ DW_TAG_template_value_parameter ]
!632 = metadata !{i32 786478, i32 0, metadata !332, metadata !"ap_int_base<33, true>", metadata !"ap_int_base<33, true>", metadata !"", metadata !295, i32 1451, metadata !633, i1 false, i1 false, i32 0, i32 0, null, i32 256, i1 false, null, metadata !635, i32 0, metadata !98, i32 1451} ; [ DW_TAG_subprogram ]
!633 = metadata !{i32 786453, i32 0, metadata !"", i32 0, i32 0, i64 0, i64 0, i64 0, i32 0, null, metadata !634, i32 0, i32 0} ; [ DW_TAG_subroutine_type ]
!634 = metadata !{null, metadata !354, metadata !330}
!635 = metadata !{metadata !636, metadata !637}
!636 = metadata !{i32 786480, null, metadata !"_AP_W2", metadata !150, i64 33, null, i32 0, i32 0} ; [ DW_TAG_template_value_parameter ]
!637 = metadata !{i32 786480, null, metadata !"_AP_S2", metadata !126, i64 1, null, i32 0, i32 0} ; [ DW_TAG_template_value_parameter ]
!638 = metadata !{i32 786478, i32 0, metadata !332, metadata !"ap_int_base<32, true>", metadata !"ap_int_base<32, true>", metadata !"", metadata !295, i32 1451, metadata !639, i1 false, i1 false, i32 0, i32 0, null, i32 256, i1 false, null, metadata !662, i32 0, metadata !98, i32 1451} ; [ DW_TAG_subprogram ]
!639 = metadata !{i32 786453, i32 0, metadata !"", i32 0, i32 0, i64 0, i64 0, i64 0, i32 0, null, metadata !640, i32 0, i32 0} ; [ DW_TAG_subroutine_type ]
!640 = metadata !{null, metadata !354, metadata !641}
!641 = metadata !{i32 786448, null, null, null, i32 0, i64 0, i64 0, i64 0, i32 0, metadata !642} ; [ DW_TAG_reference_type ]
!642 = metadata !{i32 786470, null, metadata !"", null, i32 0, i64 0, i64 0, i64 0, i32 0, metadata !643} ; [ DW_TAG_const_type ]
!643 = metadata !{i32 786434, null, metadata !"ap_int_base<32, true, true>", metadata !295, i32 1398, i64 32, i64 32, i32 0, i32 0, null, metadata !644, i32 0, null, metadata !926} ; [ DW_TAG_class_type ]
!644 = metadata !{metadata !645, metadata !655, metadata !659, metadata !663, metadata !669, metadata !672, metadata !675, metadata !678, metadata !681, metadata !684, metadata !687, metadata !690, metadata !693, metadata !696, metadata !699, metadata !702, metadata !705, metadata !708, metadata !711, metadata !714, metadata !717, metadata !721, metadata !724, metadata !727, metadata !728, metadata !732, metadata !735, metadata !738, metadata !741, metadata !744, metadata !747, metadata !750, metadata !753, metadata !756, metadata !759, metadata !762, metadata !765, metadata !774, metadata !777, metadata !780, metadata !783, metadata !786, metadata !789, metadata !792, metadata !795, metadata !798, metadata !801, metadata !804, metadata !807, metadata !810, metadata !811, metadata !815, metadata !818, metadata !819, metadata !820, metadata !821, metadata !822, metadata !823, metadata !826, metadata !827, metadata !830, metadata !831, metadata !832, metadata !833, metadata !834, metadata !835, metadata !838, metadata !839, metadata !840, metadata !843, metadata !844, metadata !847, metadata !848, metadata !851, metadata !855, metadata !856, metadata !859, metadata !860, metadata !899, metadata !900, metadata !901, metadata !902, metadata !905, metadata !906, metadata !907, metadata !908, metadata !909, metadata !910, metadata !911, metadata !912, metadata !913, metadata !914, metadata !915, metadata !916, metadata !919, metadata !922, metadata !925}
!645 = metadata !{i32 786460, metadata !643, null, metadata !295, i32 0, i64 0, i64 0, i64 0, i32 0, metadata !646} ; [ DW_TAG_inheritance ]
!646 = metadata !{i32 786434, null, metadata !"ssdm_int<32 + 1024 * 0, true>", metadata !299, i32 34, i64 32, i64 32, i32 0, i32 0, null, metadata !647, i32 0, null, metadata !654} ; [ DW_TAG_class_type ]
!647 = metadata !{metadata !648, metadata !650}
!648 = metadata !{i32 786445, metadata !646, metadata !"V", metadata !299, i32 34, i64 32, i64 32, i64 0, i32 0, metadata !649} ; [ DW_TAG_member ]
!649 = metadata !{i32 786468, null, metadata !"int32", null, i32 0, i64 32, i64 32, i64 0, i32 0, i32 5} ; [ DW_TAG_base_type ]
!650 = metadata !{i32 786478, i32 0, metadata !646, metadata !"ssdm_int", metadata !"ssdm_int", metadata !"", metadata !299, i32 34, metadata !651, i1 false, i1 false, i32 0, i32 0, null, i32 256, i1 false, null, null, i32 0, metadata !98, i32 34} ; [ DW_TAG_subprogram ]
!651 = metadata !{i32 786453, i32 0, metadata !"", i32 0, i32 0, i64 0, i64 0, i64 0, i32 0, null, metadata !652, i32 0, i32 0} ; [ DW_TAG_subroutine_type ]
!652 = metadata !{null, metadata !653}
!653 = metadata !{i32 786447, i32 0, metadata !"", i32 0, i32 0, i64 64, i64 64, i64 0, i32 64, metadata !646} ; [ DW_TAG_pointer_type ]
!654 = metadata !{metadata !313, metadata !350}
!655 = metadata !{i32 786478, i32 0, metadata !643, metadata !"ap_int_base", metadata !"ap_int_base", metadata !"", metadata !295, i32 1439, metadata !656, i1 false, i1 false, i32 0, i32 0, null, i32 256, i1 false, null, null, i32 0, metadata !98, i32 1439} ; [ DW_TAG_subprogram ]
!656 = metadata !{i32 786453, i32 0, metadata !"", i32 0, i32 0, i64 0, i64 0, i64 0, i32 0, null, metadata !657, i32 0, i32 0} ; [ DW_TAG_subroutine_type ]
!657 = metadata !{null, metadata !658}
!658 = metadata !{i32 786447, i32 0, metadata !"", i32 0, i32 0, i64 64, i64 64, i64 0, i32 64, metadata !643} ; [ DW_TAG_pointer_type ]
!659 = metadata !{i32 786478, i32 0, metadata !643, metadata !"ap_int_base<32, true>", metadata !"ap_int_base<32, true>", metadata !"", metadata !295, i32 1451, metadata !660, i1 false, i1 false, i32 0, i32 0, null, i32 256, i1 false, null, metadata !662, i32 0, metadata !98, i32 1451} ; [ DW_TAG_subprogram ]
!660 = metadata !{i32 786453, i32 0, metadata !"", i32 0, i32 0, i64 0, i64 0, i64 0, i32 0, null, metadata !661, i32 0, i32 0} ; [ DW_TAG_subroutine_type ]
!661 = metadata !{null, metadata !658, metadata !641}
!662 = metadata !{metadata !325, metadata !637}
!663 = metadata !{i32 786478, i32 0, metadata !643, metadata !"ap_int_base<32, true>", metadata !"ap_int_base<32, true>", metadata !"", metadata !295, i32 1454, metadata !664, i1 false, i1 false, i32 0, i32 0, null, i32 256, i1 false, null, metadata !662, i32 0, metadata !98, i32 1454} ; [ DW_TAG_subprogram ]
!664 = metadata !{i32 786453, i32 0, metadata !"", i32 0, i32 0, i64 0, i64 0, i64 0, i32 0, null, metadata !665, i32 0, i32 0} ; [ DW_TAG_subroutine_type ]
!665 = metadata !{null, metadata !658, metadata !666}
!666 = metadata !{i32 786448, null, null, null, i32 0, i64 0, i64 0, i64 0, i32 0, metadata !667} ; [ DW_TAG_reference_type ]
!667 = metadata !{i32 786470, null, metadata !"", null, i32 0, i64 0, i64 0, i64 0, i32 0, metadata !668} ; [ DW_TAG_const_type ]
!668 = metadata !{i32 786485, null, metadata !"", null, i32 0, i64 0, i64 0, i64 0, i32 0, metadata !643} ; [ DW_TAG_volatile_type ]
!669 = metadata !{i32 786478, i32 0, metadata !643, metadata !"ap_int_base", metadata !"ap_int_base", metadata !"", metadata !295, i32 1461, metadata !670, i1 false, i1 false, i32 0, i32 0, null, i32 384, i1 false, null, null, i32 0, metadata !98, i32 1461} ; [ DW_TAG_subprogram ]
!670 = metadata !{i32 786453, i32 0, metadata !"", i32 0, i32 0, i64 0, i64 0, i64 0, i32 0, null, metadata !671, i32 0, i32 0} ; [ DW_TAG_subroutine_type ]
!671 = metadata !{null, metadata !658, metadata !126}
!672 = metadata !{i32 786478, i32 0, metadata !643, metadata !"ap_int_base", metadata !"ap_int_base", metadata !"", metadata !295, i32 1462, metadata !673, i1 false, i1 false, i32 0, i32 0, null, i32 384, i1 false, null, null, i32 0, metadata !98, i32 1462} ; [ DW_TAG_subprogram ]
!673 = metadata !{i32 786453, i32 0, metadata !"", i32 0, i32 0, i64 0, i64 0, i64 0, i32 0, null, metadata !674, i32 0, i32 0} ; [ DW_TAG_subroutine_type ]
!674 = metadata !{null, metadata !658, metadata !394}
!675 = metadata !{i32 786478, i32 0, metadata !643, metadata !"ap_int_base", metadata !"ap_int_base", metadata !"", metadata !295, i32 1463, metadata !676, i1 false, i1 false, i32 0, i32 0, null, i32 384, i1 false, null, null, i32 0, metadata !98, i32 1463} ; [ DW_TAG_subprogram ]
!676 = metadata !{i32 786453, i32 0, metadata !"", i32 0, i32 0, i64 0, i64 0, i64 0, i32 0, null, metadata !677, i32 0, i32 0} ; [ DW_TAG_subroutine_type ]
!677 = metadata !{null, metadata !658, metadata !93}
!678 = metadata !{i32 786478, i32 0, metadata !643, metadata !"ap_int_base", metadata !"ap_int_base", metadata !"", metadata !295, i32 1464, metadata !679, i1 false, i1 false, i32 0, i32 0, null, i32 384, i1 false, null, null, i32 0, metadata !98, i32 1464} ; [ DW_TAG_subprogram ]
!679 = metadata !{i32 786453, i32 0, metadata !"", i32 0, i32 0, i64 0, i64 0, i64 0, i32 0, null, metadata !680, i32 0, i32 0} ; [ DW_TAG_subroutine_type ]
!680 = metadata !{null, metadata !658, metadata !401}
!681 = metadata !{i32 786478, i32 0, metadata !643, metadata !"ap_int_base", metadata !"ap_int_base", metadata !"", metadata !295, i32 1465, metadata !682, i1 false, i1 false, i32 0, i32 0, null, i32 384, i1 false, null, null, i32 0, metadata !98, i32 1465} ; [ DW_TAG_subprogram ]
!682 = metadata !{i32 786453, i32 0, metadata !"", i32 0, i32 0, i64 0, i64 0, i64 0, i32 0, null, metadata !683, i32 0, i32 0} ; [ DW_TAG_subroutine_type ]
!683 = metadata !{null, metadata !658, metadata !198}
!684 = metadata !{i32 786478, i32 0, metadata !643, metadata !"ap_int_base", metadata !"ap_int_base", metadata !"", metadata !295, i32 1466, metadata !685, i1 false, i1 false, i32 0, i32 0, null, i32 384, i1 false, null, null, i32 0, metadata !98, i32 1466} ; [ DW_TAG_subprogram ]
!685 = metadata !{i32 786453, i32 0, metadata !"", i32 0, i32 0, i64 0, i64 0, i64 0, i32 0, null, metadata !686, i32 0, i32 0} ; [ DW_TAG_subroutine_type ]
!686 = metadata !{null, metadata !658, metadata !150}
!687 = metadata !{i32 786478, i32 0, metadata !643, metadata !"ap_int_base", metadata !"ap_int_base", metadata !"", metadata !295, i32 1467, metadata !688, i1 false, i1 false, i32 0, i32 0, null, i32 384, i1 false, null, null, i32 0, metadata !98, i32 1467} ; [ DW_TAG_subprogram ]
!688 = metadata !{i32 786453, i32 0, metadata !"", i32 0, i32 0, i64 0, i64 0, i64 0, i32 0, null, metadata !689, i32 0, i32 0} ; [ DW_TAG_subroutine_type ]
!689 = metadata !{null, metadata !658, metadata !143}
!690 = metadata !{i32 786478, i32 0, metadata !643, metadata !"ap_int_base", metadata !"ap_int_base", metadata !"", metadata !295, i32 1468, metadata !691, i1 false, i1 false, i32 0, i32 0, null, i32 384, i1 false, null, null, i32 0, metadata !98, i32 1468} ; [ DW_TAG_subprogram ]
!691 = metadata !{i32 786453, i32 0, metadata !"", i32 0, i32 0, i64 0, i64 0, i64 0, i32 0, null, metadata !692, i32 0, i32 0} ; [ DW_TAG_subroutine_type ]
!692 = metadata !{null, metadata !658, metadata !414}
!693 = metadata !{i32 786478, i32 0, metadata !643, metadata !"ap_int_base", metadata !"ap_int_base", metadata !"", metadata !295, i32 1469, metadata !694, i1 false, i1 false, i32 0, i32 0, null, i32 384, i1 false, null, null, i32 0, metadata !98, i32 1469} ; [ DW_TAG_subprogram ]
!694 = metadata !{i32 786453, i32 0, metadata !"", i32 0, i32 0, i64 0, i64 0, i64 0, i32 0, null, metadata !695, i32 0, i32 0} ; [ DW_TAG_subroutine_type ]
!695 = metadata !{null, metadata !658, metadata !418}
!696 = metadata !{i32 786478, i32 0, metadata !643, metadata !"ap_int_base", metadata !"ap_int_base", metadata !"", metadata !295, i32 1470, metadata !697, i1 false, i1 false, i32 0, i32 0, null, i32 384, i1 false, null, null, i32 0, metadata !98, i32 1470} ; [ DW_TAG_subprogram ]
!697 = metadata !{i32 786453, i32 0, metadata !"", i32 0, i32 0, i64 0, i64 0, i64 0, i32 0, null, metadata !698, i32 0, i32 0} ; [ DW_TAG_subroutine_type ]
!698 = metadata !{null, metadata !658, metadata !422}
!699 = metadata !{i32 786478, i32 0, metadata !643, metadata !"ap_int_base", metadata !"ap_int_base", metadata !"", metadata !295, i32 1471, metadata !700, i1 false, i1 false, i32 0, i32 0, null, i32 384, i1 false, null, null, i32 0, metadata !98, i32 1471} ; [ DW_TAG_subprogram ]
!700 = metadata !{i32 786453, i32 0, metadata !"", i32 0, i32 0, i64 0, i64 0, i64 0, i32 0, null, metadata !701, i32 0, i32 0} ; [ DW_TAG_subroutine_type ]
!701 = metadata !{null, metadata !658, metadata !427}
!702 = metadata !{i32 786478, i32 0, metadata !643, metadata !"ap_int_base", metadata !"ap_int_base", metadata !"", metadata !295, i32 1472, metadata !703, i1 false, i1 false, i32 0, i32 0, null, i32 384, i1 false, null, null, i32 0, metadata !98, i32 1472} ; [ DW_TAG_subprogram ]
!703 = metadata !{i32 786453, i32 0, metadata !"", i32 0, i32 0, i64 0, i64 0, i64 0, i32 0, null, metadata !704, i32 0, i32 0} ; [ DW_TAG_subroutine_type ]
!704 = metadata !{null, metadata !658, metadata !432}
!705 = metadata !{i32 786478, i32 0, metadata !643, metadata !"ap_int_base", metadata !"ap_int_base", metadata !"", metadata !295, i32 1473, metadata !706, i1 false, i1 false, i32 0, i32 0, null, i32 384, i1 false, null, null, i32 0, metadata !98, i32 1473} ; [ DW_TAG_subprogram ]
!706 = metadata !{i32 786453, i32 0, metadata !"", i32 0, i32 0, i64 0, i64 0, i64 0, i32 0, null, metadata !707, i32 0, i32 0} ; [ DW_TAG_subroutine_type ]
!707 = metadata !{null, metadata !658, metadata !437}
!708 = metadata !{i32 786478, i32 0, metadata !643, metadata !"ap_int_base", metadata !"ap_int_base", metadata !"", metadata !295, i32 1474, metadata !709, i1 false, i1 false, i32 0, i32 0, null, i32 384, i1 false, null, null, i32 0, metadata !98, i32 1474} ; [ DW_TAG_subprogram ]
!709 = metadata !{i32 786453, i32 0, metadata !"", i32 0, i32 0, i64 0, i64 0, i64 0, i32 0, null, metadata !710, i32 0, i32 0} ; [ DW_TAG_subroutine_type ]
!710 = metadata !{null, metadata !658, metadata !441}
!711 = metadata !{i32 786478, i32 0, metadata !643, metadata !"ap_int_base", metadata !"ap_int_base", metadata !"", metadata !295, i32 1501, metadata !712, i1 false, i1 false, i32 0, i32 0, null, i32 256, i1 false, null, null, i32 0, metadata !98, i32 1501} ; [ DW_TAG_subprogram ]
!712 = metadata !{i32 786453, i32 0, metadata !"", i32 0, i32 0, i64 0, i64 0, i64 0, i32 0, null, metadata !713, i32 0, i32 0} ; [ DW_TAG_subroutine_type ]
!713 = metadata !{null, metadata !658, metadata !103}
!714 = metadata !{i32 786478, i32 0, metadata !643, metadata !"ap_int_base", metadata !"ap_int_base", metadata !"", metadata !295, i32 1508, metadata !715, i1 false, i1 false, i32 0, i32 0, null, i32 256, i1 false, null, null, i32 0, metadata !98, i32 1508} ; [ DW_TAG_subprogram ]
!715 = metadata !{i32 786453, i32 0, metadata !"", i32 0, i32 0, i64 0, i64 0, i64 0, i32 0, null, metadata !716, i32 0, i32 0} ; [ DW_TAG_subroutine_type ]
!716 = metadata !{null, metadata !658, metadata !103, metadata !394}
!717 = metadata !{i32 786478, i32 0, metadata !643, metadata !"read", metadata !"read", metadata !"_ZNV11ap_int_baseILi32ELb1ELb1EE4readEv", metadata !295, i32 1529, metadata !718, i1 false, i1 false, i32 0, i32 0, null, i32 256, i1 false, null, null, i32 0, metadata !98, i32 1529} ; [ DW_TAG_subprogram ]
!718 = metadata !{i32 786453, i32 0, metadata !"", i32 0, i32 0, i64 0, i64 0, i64 0, i32 0, null, metadata !719, i32 0, i32 0} ; [ DW_TAG_subroutine_type ]
!719 = metadata !{metadata !643, metadata !720}
!720 = metadata !{i32 786447, i32 0, metadata !"", i32 0, i32 0, i64 64, i64 64, i64 0, i32 64, metadata !668} ; [ DW_TAG_pointer_type ]
!721 = metadata !{i32 786478, i32 0, metadata !643, metadata !"write", metadata !"write", metadata !"_ZNV11ap_int_baseILi32ELb1ELb1EE5writeERKS0_", metadata !295, i32 1535, metadata !722, i1 false, i1 false, i32 0, i32 0, null, i32 256, i1 false, null, null, i32 0, metadata !98, i32 1535} ; [ DW_TAG_subprogram ]
!722 = metadata !{i32 786453, i32 0, metadata !"", i32 0, i32 0, i64 0, i64 0, i64 0, i32 0, null, metadata !723, i32 0, i32 0} ; [ DW_TAG_subroutine_type ]
!723 = metadata !{null, metadata !720, metadata !641}
!724 = metadata !{i32 786478, i32 0, metadata !643, metadata !"operator=", metadata !"operator=", metadata !"_ZNV11ap_int_baseILi32ELb1ELb1EEaSERVKS0_", metadata !295, i32 1547, metadata !725, i1 false, i1 false, i32 0, i32 0, null, i32 256, i1 false, null, null, i32 0, metadata !98, i32 1547} ; [ DW_TAG_subprogram ]
!725 = metadata !{i32 786453, i32 0, metadata !"", i32 0, i32 0, i64 0, i64 0, i64 0, i32 0, null, metadata !726, i32 0, i32 0} ; [ DW_TAG_subroutine_type ]
!726 = metadata !{null, metadata !720, metadata !666}
!727 = metadata !{i32 786478, i32 0, metadata !643, metadata !"operator=", metadata !"operator=", metadata !"_ZNV11ap_int_baseILi32ELb1ELb1EEaSERKS0_", metadata !295, i32 1556, metadata !722, i1 false, i1 false, i32 0, i32 0, null, i32 256, i1 false, null, null, i32 0, metadata !98, i32 1556} ; [ DW_TAG_subprogram ]
!728 = metadata !{i32 786478, i32 0, metadata !643, metadata !"operator=", metadata !"operator=", metadata !"_ZN11ap_int_baseILi32ELb1ELb1EEaSERVKS0_", metadata !295, i32 1579, metadata !729, i1 false, i1 false, i32 0, i32 0, null, i32 256, i1 false, null, null, i32 0, metadata !98, i32 1579} ; [ DW_TAG_subprogram ]
!729 = metadata !{i32 786453, i32 0, metadata !"", i32 0, i32 0, i64 0, i64 0, i64 0, i32 0, null, metadata !730, i32 0, i32 0} ; [ DW_TAG_subroutine_type ]
!730 = metadata !{metadata !731, metadata !658, metadata !666}
!731 = metadata !{i32 786448, null, null, null, i32 0, i64 0, i64 0, i64 0, i32 0, metadata !643} ; [ DW_TAG_reference_type ]
!732 = metadata !{i32 786478, i32 0, metadata !643, metadata !"operator=", metadata !"operator=", metadata !"_ZN11ap_int_baseILi32ELb1ELb1EEaSERKS0_", metadata !295, i32 1584, metadata !733, i1 false, i1 false, i32 0, i32 0, null, i32 256, i1 false, null, null, i32 0, metadata !98, i32 1584} ; [ DW_TAG_subprogram ]
!733 = metadata !{i32 786453, i32 0, metadata !"", i32 0, i32 0, i64 0, i64 0, i64 0, i32 0, null, metadata !734, i32 0, i32 0} ; [ DW_TAG_subroutine_type ]
!734 = metadata !{metadata !731, metadata !658, metadata !641}
!735 = metadata !{i32 786478, i32 0, metadata !643, metadata !"operator=", metadata !"operator=", metadata !"_ZN11ap_int_baseILi32ELb1ELb1EEaSEPKc", metadata !295, i32 1588, metadata !736, i1 false, i1 false, i32 0, i32 0, null, i32 256, i1 false, null, null, i32 0, metadata !98, i32 1588} ; [ DW_TAG_subprogram ]
!736 = metadata !{i32 786453, i32 0, metadata !"", i32 0, i32 0, i64 0, i64 0, i64 0, i32 0, null, metadata !737, i32 0, i32 0} ; [ DW_TAG_subroutine_type ]
!737 = metadata !{metadata !731, metadata !658, metadata !103}
!738 = metadata !{i32 786478, i32 0, metadata !643, metadata !"set", metadata !"set", metadata !"_ZN11ap_int_baseILi32ELb1ELb1EE3setEPKca", metadata !295, i32 1596, metadata !739, i1 false, i1 false, i32 0, i32 0, null, i32 256, i1 false, null, null, i32 0, metadata !98, i32 1596} ; [ DW_TAG_subprogram ]
!739 = metadata !{i32 786453, i32 0, metadata !"", i32 0, i32 0, i64 0, i64 0, i64 0, i32 0, null, metadata !740, i32 0, i32 0} ; [ DW_TAG_subroutine_type ]
!740 = metadata !{metadata !731, metadata !658, metadata !103, metadata !394}
!741 = metadata !{i32 786478, i32 0, metadata !643, metadata !"operator=", metadata !"operator=", metadata !"_ZN11ap_int_baseILi32ELb1ELb1EEaSEa", metadata !295, i32 1610, metadata !742, i1 false, i1 false, i32 0, i32 0, null, i32 256, i1 false, null, null, i32 0, metadata !98, i32 1610} ; [ DW_TAG_subprogram ]
!742 = metadata !{i32 786453, i32 0, metadata !"", i32 0, i32 0, i64 0, i64 0, i64 0, i32 0, null, metadata !743, i32 0, i32 0} ; [ DW_TAG_subroutine_type ]
!743 = metadata !{metadata !731, metadata !658, metadata !394}
!744 = metadata !{i32 786478, i32 0, metadata !643, metadata !"operator=", metadata !"operator=", metadata !"_ZN11ap_int_baseILi32ELb1ELb1EEaSEh", metadata !295, i32 1611, metadata !745, i1 false, i1 false, i32 0, i32 0, null, i32 256, i1 false, null, null, i32 0, metadata !98, i32 1611} ; [ DW_TAG_subprogram ]
!745 = metadata !{i32 786453, i32 0, metadata !"", i32 0, i32 0, i64 0, i64 0, i64 0, i32 0, null, metadata !746, i32 0, i32 0} ; [ DW_TAG_subroutine_type ]
!746 = metadata !{metadata !731, metadata !658, metadata !93}
!747 = metadata !{i32 786478, i32 0, metadata !643, metadata !"operator=", metadata !"operator=", metadata !"_ZN11ap_int_baseILi32ELb1ELb1EEaSEs", metadata !295, i32 1612, metadata !748, i1 false, i1 false, i32 0, i32 0, null, i32 256, i1 false, null, null, i32 0, metadata !98, i32 1612} ; [ DW_TAG_subprogram ]
!748 = metadata !{i32 786453, i32 0, metadata !"", i32 0, i32 0, i64 0, i64 0, i64 0, i32 0, null, metadata !749, i32 0, i32 0} ; [ DW_TAG_subroutine_type ]
!749 = metadata !{metadata !731, metadata !658, metadata !401}
!750 = metadata !{i32 786478, i32 0, metadata !643, metadata !"operator=", metadata !"operator=", metadata !"_ZN11ap_int_baseILi32ELb1ELb1EEaSEt", metadata !295, i32 1613, metadata !751, i1 false, i1 false, i32 0, i32 0, null, i32 256, i1 false, null, null, i32 0, metadata !98, i32 1613} ; [ DW_TAG_subprogram ]
!751 = metadata !{i32 786453, i32 0, metadata !"", i32 0, i32 0, i64 0, i64 0, i64 0, i32 0, null, metadata !752, i32 0, i32 0} ; [ DW_TAG_subroutine_type ]
!752 = metadata !{metadata !731, metadata !658, metadata !198}
!753 = metadata !{i32 786478, i32 0, metadata !643, metadata !"operator=", metadata !"operator=", metadata !"_ZN11ap_int_baseILi32ELb1ELb1EEaSEi", metadata !295, i32 1614, metadata !754, i1 false, i1 false, i32 0, i32 0, null, i32 256, i1 false, null, null, i32 0, metadata !98, i32 1614} ; [ DW_TAG_subprogram ]
!754 = metadata !{i32 786453, i32 0, metadata !"", i32 0, i32 0, i64 0, i64 0, i64 0, i32 0, null, metadata !755, i32 0, i32 0} ; [ DW_TAG_subroutine_type ]
!755 = metadata !{metadata !731, metadata !658, metadata !150}
!756 = metadata !{i32 786478, i32 0, metadata !643, metadata !"operator=", metadata !"operator=", metadata !"_ZN11ap_int_baseILi32ELb1ELb1EEaSEj", metadata !295, i32 1615, metadata !757, i1 false, i1 false, i32 0, i32 0, null, i32 256, i1 false, null, null, i32 0, metadata !98, i32 1615} ; [ DW_TAG_subprogram ]
!757 = metadata !{i32 786453, i32 0, metadata !"", i32 0, i32 0, i64 0, i64 0, i64 0, i32 0, null, metadata !758, i32 0, i32 0} ; [ DW_TAG_subroutine_type ]
!758 = metadata !{metadata !731, metadata !658, metadata !143}
!759 = metadata !{i32 786478, i32 0, metadata !643, metadata !"operator=", metadata !"operator=", metadata !"_ZN11ap_int_baseILi32ELb1ELb1EEaSEx", metadata !295, i32 1616, metadata !760, i1 false, i1 false, i32 0, i32 0, null, i32 256, i1 false, null, null, i32 0, metadata !98, i32 1616} ; [ DW_TAG_subprogram ]
!760 = metadata !{i32 786453, i32 0, metadata !"", i32 0, i32 0, i64 0, i64 0, i64 0, i32 0, null, metadata !761, i32 0, i32 0} ; [ DW_TAG_subroutine_type ]
!761 = metadata !{metadata !731, metadata !658, metadata !422}
!762 = metadata !{i32 786478, i32 0, metadata !643, metadata !"operator=", metadata !"operator=", metadata !"_ZN11ap_int_baseILi32ELb1ELb1EEaSEy", metadata !295, i32 1617, metadata !763, i1 false, i1 false, i32 0, i32 0, null, i32 256, i1 false, null, null, i32 0, metadata !98, i32 1617} ; [ DW_TAG_subprogram ]
!763 = metadata !{i32 786453, i32 0, metadata !"", i32 0, i32 0, i64 0, i64 0, i64 0, i32 0, null, metadata !764, i32 0, i32 0} ; [ DW_TAG_subroutine_type ]
!764 = metadata !{metadata !731, metadata !658, metadata !427}
!765 = metadata !{i32 786478, i32 0, metadata !643, metadata !"operator int", metadata !"operator int", metadata !"_ZNK11ap_int_baseILi32ELb1ELb1EEcviEv", metadata !295, i32 1655, metadata !766, i1 false, i1 false, i32 0, i32 0, null, i32 256, i1 false, null, null, i32 0, metadata !98, i32 1655} ; [ DW_TAG_subprogram ]
!766 = metadata !{i32 786453, i32 0, metadata !"", i32 0, i32 0, i64 0, i64 0, i64 0, i32 0, null, metadata !767, i32 0, i32 0} ; [ DW_TAG_subroutine_type ]
!767 = metadata !{metadata !768, metadata !773}
!768 = metadata !{i32 786454, metadata !643, metadata !"RetType", metadata !295, i32 1403, i64 0, i64 0, i64 0, i32 0, metadata !769} ; [ DW_TAG_typedef ]
!769 = metadata !{i32 786454, metadata !770, metadata !"Type", metadata !295, i32 1386, i64 0, i64 0, i64 0, i32 0, metadata !150} ; [ DW_TAG_typedef ]
!770 = metadata !{i32 786434, null, metadata !"retval<4, true>", metadata !295, i32 1385, i64 8, i64 8, i32 0, i32 0, null, metadata !502, i32 0, null, metadata !771} ; [ DW_TAG_class_type ]
!771 = metadata !{metadata !772, metadata !350}
!772 = metadata !{i32 786480, null, metadata !"_AP_N", metadata !150, i64 4, null, i32 0, i32 0} ; [ DW_TAG_template_value_parameter ]
!773 = metadata !{i32 786447, i32 0, metadata !"", i32 0, i32 0, i64 64, i64 64, i64 0, i32 64, metadata !642} ; [ DW_TAG_pointer_type ]
!774 = metadata !{i32 786478, i32 0, metadata !643, metadata !"to_bool", metadata !"to_bool", metadata !"_ZNK11ap_int_baseILi32ELb1ELb1EE7to_boolEv", metadata !295, i32 1661, metadata !775, i1 false, i1 false, i32 0, i32 0, null, i32 256, i1 false, null, null, i32 0, metadata !98, i32 1661} ; [ DW_TAG_subprogram ]
!775 = metadata !{i32 786453, i32 0, metadata !"", i32 0, i32 0, i64 0, i64 0, i64 0, i32 0, null, metadata !776, i32 0, i32 0} ; [ DW_TAG_subroutine_type ]
!776 = metadata !{metadata !126, metadata !773}
!777 = metadata !{i32 786478, i32 0, metadata !643, metadata !"to_uchar", metadata !"to_uchar", metadata !"_ZNK11ap_int_baseILi32ELb1ELb1EE8to_ucharEv", metadata !295, i32 1662, metadata !778, i1 false, i1 false, i32 0, i32 0, null, i32 256, i1 false, null, null, i32 0, metadata !98, i32 1662} ; [ DW_TAG_subprogram ]
!778 = metadata !{i32 786453, i32 0, metadata !"", i32 0, i32 0, i64 0, i64 0, i64 0, i32 0, null, metadata !779, i32 0, i32 0} ; [ DW_TAG_subroutine_type ]
!779 = metadata !{metadata !93, metadata !773}
!780 = metadata !{i32 786478, i32 0, metadata !643, metadata !"to_char", metadata !"to_char", metadata !"_ZNK11ap_int_baseILi32ELb1ELb1EE7to_charEv", metadata !295, i32 1663, metadata !781, i1 false, i1 false, i32 0, i32 0, null, i32 256, i1 false, null, null, i32 0, metadata !98, i32 1663} ; [ DW_TAG_subprogram ]
!781 = metadata !{i32 786453, i32 0, metadata !"", i32 0, i32 0, i64 0, i64 0, i64 0, i32 0, null, metadata !782, i32 0, i32 0} ; [ DW_TAG_subroutine_type ]
!782 = metadata !{metadata !394, metadata !773}
!783 = metadata !{i32 786478, i32 0, metadata !643, metadata !"to_ushort", metadata !"to_ushort", metadata !"_ZNK11ap_int_baseILi32ELb1ELb1EE9to_ushortEv", metadata !295, i32 1664, metadata !784, i1 false, i1 false, i32 0, i32 0, null, i32 256, i1 false, null, null, i32 0, metadata !98, i32 1664} ; [ DW_TAG_subprogram ]
!784 = metadata !{i32 786453, i32 0, metadata !"", i32 0, i32 0, i64 0, i64 0, i64 0, i32 0, null, metadata !785, i32 0, i32 0} ; [ DW_TAG_subroutine_type ]
!785 = metadata !{metadata !198, metadata !773}
!786 = metadata !{i32 786478, i32 0, metadata !643, metadata !"to_short", metadata !"to_short", metadata !"_ZNK11ap_int_baseILi32ELb1ELb1EE8to_shortEv", metadata !295, i32 1665, metadata !787, i1 false, i1 false, i32 0, i32 0, null, i32 256, i1 false, null, null, i32 0, metadata !98, i32 1665} ; [ DW_TAG_subprogram ]
!787 = metadata !{i32 786453, i32 0, metadata !"", i32 0, i32 0, i64 0, i64 0, i64 0, i32 0, null, metadata !788, i32 0, i32 0} ; [ DW_TAG_subroutine_type ]
!788 = metadata !{metadata !401, metadata !773}
!789 = metadata !{i32 786478, i32 0, metadata !643, metadata !"to_int", metadata !"to_int", metadata !"_ZNK11ap_int_baseILi32ELb1ELb1EE6to_intEv", metadata !295, i32 1666, metadata !790, i1 false, i1 false, i32 0, i32 0, null, i32 256, i1 false, null, null, i32 0, metadata !98, i32 1666} ; [ DW_TAG_subprogram ]
!790 = metadata !{i32 786453, i32 0, metadata !"", i32 0, i32 0, i64 0, i64 0, i64 0, i32 0, null, metadata !791, i32 0, i32 0} ; [ DW_TAG_subroutine_type ]
!791 = metadata !{metadata !150, metadata !773}
!792 = metadata !{i32 786478, i32 0, metadata !643, metadata !"to_uint", metadata !"to_uint", metadata !"_ZNK11ap_int_baseILi32ELb1ELb1EE7to_uintEv", metadata !295, i32 1667, metadata !793, i1 false, i1 false, i32 0, i32 0, null, i32 256, i1 false, null, null, i32 0, metadata !98, i32 1667} ; [ DW_TAG_subprogram ]
!793 = metadata !{i32 786453, i32 0, metadata !"", i32 0, i32 0, i64 0, i64 0, i64 0, i32 0, null, metadata !794, i32 0, i32 0} ; [ DW_TAG_subroutine_type ]
!794 = metadata !{metadata !143, metadata !773}
!795 = metadata !{i32 786478, i32 0, metadata !643, metadata !"to_long", metadata !"to_long", metadata !"_ZNK11ap_int_baseILi32ELb1ELb1EE7to_longEv", metadata !295, i32 1668, metadata !796, i1 false, i1 false, i32 0, i32 0, null, i32 256, i1 false, null, null, i32 0, metadata !98, i32 1668} ; [ DW_TAG_subprogram ]
!796 = metadata !{i32 786453, i32 0, metadata !"", i32 0, i32 0, i64 0, i64 0, i64 0, i32 0, null, metadata !797, i32 0, i32 0} ; [ DW_TAG_subroutine_type ]
!797 = metadata !{metadata !414, metadata !773}
!798 = metadata !{i32 786478, i32 0, metadata !643, metadata !"to_ulong", metadata !"to_ulong", metadata !"_ZNK11ap_int_baseILi32ELb1ELb1EE8to_ulongEv", metadata !295, i32 1669, metadata !799, i1 false, i1 false, i32 0, i32 0, null, i32 256, i1 false, null, null, i32 0, metadata !98, i32 1669} ; [ DW_TAG_subprogram ]
!799 = metadata !{i32 786453, i32 0, metadata !"", i32 0, i32 0, i64 0, i64 0, i64 0, i32 0, null, metadata !800, i32 0, i32 0} ; [ DW_TAG_subroutine_type ]
!800 = metadata !{metadata !418, metadata !773}
!801 = metadata !{i32 786478, i32 0, metadata !643, metadata !"to_int64", metadata !"to_int64", metadata !"_ZNK11ap_int_baseILi32ELb1ELb1EE8to_int64Ev", metadata !295, i32 1670, metadata !802, i1 false, i1 false, i32 0, i32 0, null, i32 256, i1 false, null, null, i32 0, metadata !98, i32 1670} ; [ DW_TAG_subprogram ]
!802 = metadata !{i32 786453, i32 0, metadata !"", i32 0, i32 0, i64 0, i64 0, i64 0, i32 0, null, metadata !803, i32 0, i32 0} ; [ DW_TAG_subroutine_type ]
!803 = metadata !{metadata !422, metadata !773}
!804 = metadata !{i32 786478, i32 0, metadata !643, metadata !"to_uint64", metadata !"to_uint64", metadata !"_ZNK11ap_int_baseILi32ELb1ELb1EE9to_uint64Ev", metadata !295, i32 1671, metadata !805, i1 false, i1 false, i32 0, i32 0, null, i32 256, i1 false, null, null, i32 0, metadata !98, i32 1671} ; [ DW_TAG_subprogram ]
!805 = metadata !{i32 786453, i32 0, metadata !"", i32 0, i32 0, i64 0, i64 0, i64 0, i32 0, null, metadata !806, i32 0, i32 0} ; [ DW_TAG_subroutine_type ]
!806 = metadata !{metadata !427, metadata !773}
!807 = metadata !{i32 786478, i32 0, metadata !643, metadata !"to_double", metadata !"to_double", metadata !"_ZNK11ap_int_baseILi32ELb1ELb1EE9to_doubleEv", metadata !295, i32 1672, metadata !808, i1 false, i1 false, i32 0, i32 0, null, i32 256, i1 false, null, null, i32 0, metadata !98, i32 1672} ; [ DW_TAG_subprogram ]
!808 = metadata !{i32 786453, i32 0, metadata !"", i32 0, i32 0, i64 0, i64 0, i64 0, i32 0, null, metadata !809, i32 0, i32 0} ; [ DW_TAG_subroutine_type ]
!809 = metadata !{metadata !441, metadata !773}
!810 = metadata !{i32 786478, i32 0, metadata !643, metadata !"length", metadata !"length", metadata !"_ZNK11ap_int_baseILi32ELb1ELb1EE6lengthEv", metadata !295, i32 1686, metadata !790, i1 false, i1 false, i32 0, i32 0, null, i32 256, i1 false, null, null, i32 0, metadata !98, i32 1686} ; [ DW_TAG_subprogram ]
!811 = metadata !{i32 786478, i32 0, metadata !643, metadata !"length", metadata !"length", metadata !"_ZNVK11ap_int_baseILi32ELb1ELb1EE6lengthEv", metadata !295, i32 1687, metadata !812, i1 false, i1 false, i32 0, i32 0, null, i32 256, i1 false, null, null, i32 0, metadata !98, i32 1687} ; [ DW_TAG_subprogram ]
!812 = metadata !{i32 786453, i32 0, metadata !"", i32 0, i32 0, i64 0, i64 0, i64 0, i32 0, null, metadata !813, i32 0, i32 0} ; [ DW_TAG_subroutine_type ]
!813 = metadata !{metadata !150, metadata !814}
!814 = metadata !{i32 786447, i32 0, metadata !"", i32 0, i32 0, i64 64, i64 64, i64 0, i32 64, metadata !667} ; [ DW_TAG_pointer_type ]
!815 = metadata !{i32 786478, i32 0, metadata !643, metadata !"reverse", metadata !"reverse", metadata !"_ZN11ap_int_baseILi32ELb1ELb1EE7reverseEv", metadata !295, i32 1692, metadata !816, i1 false, i1 false, i32 0, i32 0, null, i32 256, i1 false, null, null, i32 0, metadata !98, i32 1692} ; [ DW_TAG_subprogram ]
!816 = metadata !{i32 786453, i32 0, metadata !"", i32 0, i32 0, i64 0, i64 0, i64 0, i32 0, null, metadata !817, i32 0, i32 0} ; [ DW_TAG_subroutine_type ]
!817 = metadata !{metadata !731, metadata !658}
!818 = metadata !{i32 786478, i32 0, metadata !643, metadata !"iszero", metadata !"iszero", metadata !"_ZNK11ap_int_baseILi32ELb1ELb1EE6iszeroEv", metadata !295, i32 1698, metadata !775, i1 false, i1 false, i32 0, i32 0, null, i32 256, i1 false, null, null, i32 0, metadata !98, i32 1698} ; [ DW_TAG_subprogram ]
!819 = metadata !{i32 786478, i32 0, metadata !643, metadata !"is_zero", metadata !"is_zero", metadata !"_ZNK11ap_int_baseILi32ELb1ELb1EE7is_zeroEv", metadata !295, i32 1703, metadata !775, i1 false, i1 false, i32 0, i32 0, null, i32 256, i1 false, null, null, i32 0, metadata !98, i32 1703} ; [ DW_TAG_subprogram ]
!820 = metadata !{i32 786478, i32 0, metadata !643, metadata !"sign", metadata !"sign", metadata !"_ZNK11ap_int_baseILi32ELb1ELb1EE4signEv", metadata !295, i32 1708, metadata !775, i1 false, i1 false, i32 0, i32 0, null, i32 256, i1 false, null, null, i32 0, metadata !98, i32 1708} ; [ DW_TAG_subprogram ]
!821 = metadata !{i32 786478, i32 0, metadata !643, metadata !"clear", metadata !"clear", metadata !"_ZN11ap_int_baseILi32ELb1ELb1EE5clearEi", metadata !295, i32 1716, metadata !685, i1 false, i1 false, i32 0, i32 0, null, i32 256, i1 false, null, null, i32 0, metadata !98, i32 1716} ; [ DW_TAG_subprogram ]
!822 = metadata !{i32 786478, i32 0, metadata !643, metadata !"invert", metadata !"invert", metadata !"_ZN11ap_int_baseILi32ELb1ELb1EE6invertEi", metadata !295, i32 1722, metadata !685, i1 false, i1 false, i32 0, i32 0, null, i32 256, i1 false, null, null, i32 0, metadata !98, i32 1722} ; [ DW_TAG_subprogram ]
!823 = metadata !{i32 786478, i32 0, metadata !643, metadata !"test", metadata !"test", metadata !"_ZNK11ap_int_baseILi32ELb1ELb1EE4testEi", metadata !295, i32 1730, metadata !824, i1 false, i1 false, i32 0, i32 0, null, i32 256, i1 false, null, null, i32 0, metadata !98, i32 1730} ; [ DW_TAG_subprogram ]
!824 = metadata !{i32 786453, i32 0, metadata !"", i32 0, i32 0, i64 0, i64 0, i64 0, i32 0, null, metadata !825, i32 0, i32 0} ; [ DW_TAG_subroutine_type ]
!825 = metadata !{metadata !126, metadata !773, metadata !150}
!826 = metadata !{i32 786478, i32 0, metadata !643, metadata !"set", metadata !"set", metadata !"_ZN11ap_int_baseILi32ELb1ELb1EE3setEi", metadata !295, i32 1736, metadata !685, i1 false, i1 false, i32 0, i32 0, null, i32 256, i1 false, null, null, i32 0, metadata !98, i32 1736} ; [ DW_TAG_subprogram ]
!827 = metadata !{i32 786478, i32 0, metadata !643, metadata !"set", metadata !"set", metadata !"_ZN11ap_int_baseILi32ELb1ELb1EE3setEib", metadata !295, i32 1742, metadata !828, i1 false, i1 false, i32 0, i32 0, null, i32 256, i1 false, null, null, i32 0, metadata !98, i32 1742} ; [ DW_TAG_subprogram ]
!828 = metadata !{i32 786453, i32 0, metadata !"", i32 0, i32 0, i64 0, i64 0, i64 0, i32 0, null, metadata !829, i32 0, i32 0} ; [ DW_TAG_subroutine_type ]
!829 = metadata !{null, metadata !658, metadata !150, metadata !126}
!830 = metadata !{i32 786478, i32 0, metadata !643, metadata !"lrotate", metadata !"lrotate", metadata !"_ZN11ap_int_baseILi32ELb1ELb1EE7lrotateEi", metadata !295, i32 1749, metadata !685, i1 false, i1 false, i32 0, i32 0, null, i32 256, i1 false, null, null, i32 0, metadata !98, i32 1749} ; [ DW_TAG_subprogram ]
!831 = metadata !{i32 786478, i32 0, metadata !643, metadata !"rrotate", metadata !"rrotate", metadata !"_ZN11ap_int_baseILi32ELb1ELb1EE7rrotateEi", metadata !295, i32 1758, metadata !685, i1 false, i1 false, i32 0, i32 0, null, i32 256, i1 false, null, null, i32 0, metadata !98, i32 1758} ; [ DW_TAG_subprogram ]
!832 = metadata !{i32 786478, i32 0, metadata !643, metadata !"set_bit", metadata !"set_bit", metadata !"_ZN11ap_int_baseILi32ELb1ELb1EE7set_bitEib", metadata !295, i32 1766, metadata !828, i1 false, i1 false, i32 0, i32 0, null, i32 256, i1 false, null, null, i32 0, metadata !98, i32 1766} ; [ DW_TAG_subprogram ]
!833 = metadata !{i32 786478, i32 0, metadata !643, metadata !"get_bit", metadata !"get_bit", metadata !"_ZNK11ap_int_baseILi32ELb1ELb1EE7get_bitEi", metadata !295, i32 1771, metadata !824, i1 false, i1 false, i32 0, i32 0, null, i32 256, i1 false, null, null, i32 0, metadata !98, i32 1771} ; [ DW_TAG_subprogram ]
!834 = metadata !{i32 786478, i32 0, metadata !643, metadata !"b_not", metadata !"b_not", metadata !"_ZN11ap_int_baseILi32ELb1ELb1EE5b_notEv", metadata !295, i32 1776, metadata !656, i1 false, i1 false, i32 0, i32 0, null, i32 256, i1 false, null, null, i32 0, metadata !98, i32 1776} ; [ DW_TAG_subprogram ]
!835 = metadata !{i32 786478, i32 0, metadata !643, metadata !"countLeadingZeros", metadata !"countLeadingZeros", metadata !"_ZN11ap_int_baseILi32ELb1ELb1EE17countLeadingZerosEv", metadata !295, i32 1783, metadata !836, i1 false, i1 false, i32 0, i32 0, null, i32 256, i1 false, null, null, i32 0, metadata !98, i32 1783} ; [ DW_TAG_subprogram ]
!836 = metadata !{i32 786453, i32 0, metadata !"", i32 0, i32 0, i64 0, i64 0, i64 0, i32 0, null, metadata !837, i32 0, i32 0} ; [ DW_TAG_subroutine_type ]
!837 = metadata !{metadata !150, metadata !658}
!838 = metadata !{i32 786478, i32 0, metadata !643, metadata !"operator++", metadata !"operator++", metadata !"_ZN11ap_int_baseILi32ELb1ELb1EEppEv", metadata !295, i32 1840, metadata !816, i1 false, i1 false, i32 0, i32 0, null, i32 256, i1 false, null, null, i32 0, metadata !98, i32 1840} ; [ DW_TAG_subprogram ]
!839 = metadata !{i32 786478, i32 0, metadata !643, metadata !"operator--", metadata !"operator--", metadata !"_ZN11ap_int_baseILi32ELb1ELb1EEmmEv", metadata !295, i32 1844, metadata !816, i1 false, i1 false, i32 0, i32 0, null, i32 256, i1 false, null, null, i32 0, metadata !98, i32 1844} ; [ DW_TAG_subprogram ]
!840 = metadata !{i32 786478, i32 0, metadata !643, metadata !"operator++", metadata !"operator++", metadata !"_ZN11ap_int_baseILi32ELb1ELb1EEppEi", metadata !295, i32 1852, metadata !841, i1 false, i1 false, i32 0, i32 0, null, i32 256, i1 false, null, null, i32 0, metadata !98, i32 1852} ; [ DW_TAG_subprogram ]
!841 = metadata !{i32 786453, i32 0, metadata !"", i32 0, i32 0, i64 0, i64 0, i64 0, i32 0, null, metadata !842, i32 0, i32 0} ; [ DW_TAG_subroutine_type ]
!842 = metadata !{metadata !642, metadata !658, metadata !150}
!843 = metadata !{i32 786478, i32 0, metadata !643, metadata !"operator--", metadata !"operator--", metadata !"_ZN11ap_int_baseILi32ELb1ELb1EEmmEi", metadata !295, i32 1857, metadata !841, i1 false, i1 false, i32 0, i32 0, null, i32 256, i1 false, null, null, i32 0, metadata !98, i32 1857} ; [ DW_TAG_subprogram ]
!844 = metadata !{i32 786478, i32 0, metadata !643, metadata !"operator+", metadata !"operator+", metadata !"_ZNK11ap_int_baseILi32ELb1ELb1EEpsEv", metadata !295, i32 1866, metadata !845, i1 false, i1 false, i32 0, i32 0, null, i32 256, i1 false, null, null, i32 0, metadata !98, i32 1866} ; [ DW_TAG_subprogram ]
!845 = metadata !{i32 786453, i32 0, metadata !"", i32 0, i32 0, i64 0, i64 0, i64 0, i32 0, null, metadata !846, i32 0, i32 0} ; [ DW_TAG_subroutine_type ]
!846 = metadata !{metadata !643, metadata !773}
!847 = metadata !{i32 786478, i32 0, metadata !643, metadata !"operator!", metadata !"operator!", metadata !"_ZNK11ap_int_baseILi32ELb1ELb1EEntEv", metadata !295, i32 1872, metadata !775, i1 false, i1 false, i32 0, i32 0, null, i32 256, i1 false, null, null, i32 0, metadata !98, i32 1872} ; [ DW_TAG_subprogram ]
!848 = metadata !{i32 786478, i32 0, metadata !643, metadata !"operator-", metadata !"operator-", metadata !"_ZNK11ap_int_baseILi32ELb1ELb1EEngEv", metadata !295, i32 1877, metadata !849, i1 false, i1 false, i32 0, i32 0, null, i32 256, i1 false, null, null, i32 0, metadata !98, i32 1877} ; [ DW_TAG_subprogram ]
!849 = metadata !{i32 786453, i32 0, metadata !"", i32 0, i32 0, i64 0, i64 0, i64 0, i32 0, null, metadata !850, i32 0, i32 0} ; [ DW_TAG_subroutine_type ]
!850 = metadata !{metadata !332, metadata !773}
!851 = metadata !{i32 786478, i32 0, metadata !643, metadata !"range", metadata !"range", metadata !"_ZN11ap_int_baseILi32ELb1ELb1EE5rangeEii", metadata !295, i32 2007, metadata !852, i1 false, i1 false, i32 0, i32 0, null, i32 256, i1 false, null, null, i32 0, metadata !98, i32 2007} ; [ DW_TAG_subprogram ]
!852 = metadata !{i32 786453, i32 0, metadata !"", i32 0, i32 0, i64 0, i64 0, i64 0, i32 0, null, metadata !853, i32 0, i32 0} ; [ DW_TAG_subroutine_type ]
!853 = metadata !{metadata !854, metadata !658, metadata !150, metadata !150}
!854 = metadata !{i32 786434, null, metadata !"ap_range_ref<32, true>", metadata !295, i32 924, i32 0, i32 0, i32 0, i32 4, null, null, i32 0} ; [ DW_TAG_class_type ]
!855 = metadata !{i32 786478, i32 0, metadata !643, metadata !"operator()", metadata !"operator()", metadata !"_ZN11ap_int_baseILi32ELb1ELb1EEclEii", metadata !295, i32 2013, metadata !852, i1 false, i1 false, i32 0, i32 0, null, i32 256, i1 false, null, null, i32 0, metadata !98, i32 2013} ; [ DW_TAG_subprogram ]
!856 = metadata !{i32 786478, i32 0, metadata !643, metadata !"range", metadata !"range", metadata !"_ZNK11ap_int_baseILi32ELb1ELb1EE5rangeEii", metadata !295, i32 2019, metadata !857, i1 false, i1 false, i32 0, i32 0, null, i32 256, i1 false, null, null, i32 0, metadata !98, i32 2019} ; [ DW_TAG_subprogram ]
!857 = metadata !{i32 786453, i32 0, metadata !"", i32 0, i32 0, i64 0, i64 0, i64 0, i32 0, null, metadata !858, i32 0, i32 0} ; [ DW_TAG_subroutine_type ]
!858 = metadata !{metadata !854, metadata !773, metadata !150, metadata !150}
!859 = metadata !{i32 786478, i32 0, metadata !643, metadata !"operator()", metadata !"operator()", metadata !"_ZNK11ap_int_baseILi32ELb1ELb1EEclEii", metadata !295, i32 2025, metadata !857, i1 false, i1 false, i32 0, i32 0, null, i32 256, i1 false, null, null, i32 0, metadata !98, i32 2025} ; [ DW_TAG_subprogram ]
!860 = metadata !{i32 786478, i32 0, metadata !643, metadata !"operator[]", metadata !"operator[]", metadata !"_ZN11ap_int_baseILi32ELb1ELb1EEixEi", metadata !295, i32 2044, metadata !861, i1 false, i1 false, i32 0, i32 0, null, i32 256, i1 false, null, null, i32 0, metadata !98, i32 2044} ; [ DW_TAG_subprogram ]
!861 = metadata !{i32 786453, i32 0, metadata !"", i32 0, i32 0, i64 0, i64 0, i64 0, i32 0, null, metadata !862, i32 0, i32 0} ; [ DW_TAG_subroutine_type ]
!862 = metadata !{metadata !863, metadata !658, metadata !150}
!863 = metadata !{i32 786434, null, metadata !"ap_bit_ref<32, true>", metadata !295, i32 1194, i64 128, i64 64, i32 0, i32 0, null, metadata !864, i32 0, null, metadata !897} ; [ DW_TAG_class_type ]
!864 = metadata !{metadata !865, metadata !866, metadata !867, metadata !873, metadata !877, metadata !881, metadata !882, metadata !886, metadata !889, metadata !890, metadata !893, metadata !894}
!865 = metadata !{i32 786445, metadata !863, metadata !"d_bv", metadata !295, i32 1195, i64 64, i64 64, i64 0, i32 0, metadata !731} ; [ DW_TAG_member ]
!866 = metadata !{i32 786445, metadata !863, metadata !"d_index", metadata !295, i32 1196, i64 32, i64 32, i64 64, i32 0, metadata !150} ; [ DW_TAG_member ]
!867 = metadata !{i32 786478, i32 0, metadata !863, metadata !"ap_bit_ref", metadata !"ap_bit_ref", metadata !"", metadata !295, i32 1199, metadata !868, i1 false, i1 false, i32 0, i32 0, null, i32 256, i1 false, null, null, i32 0, metadata !98, i32 1199} ; [ DW_TAG_subprogram ]
!868 = metadata !{i32 786453, i32 0, metadata !"", i32 0, i32 0, i64 0, i64 0, i64 0, i32 0, null, metadata !869, i32 0, i32 0} ; [ DW_TAG_subroutine_type ]
!869 = metadata !{null, metadata !870, metadata !871}
!870 = metadata !{i32 786447, i32 0, metadata !"", i32 0, i32 0, i64 64, i64 64, i64 0, i32 64, metadata !863} ; [ DW_TAG_pointer_type ]
!871 = metadata !{i32 786448, null, null, null, i32 0, i64 0, i64 0, i64 0, i32 0, metadata !872} ; [ DW_TAG_reference_type ]
!872 = metadata !{i32 786470, null, metadata !"", null, i32 0, i64 0, i64 0, i64 0, i32 0, metadata !863} ; [ DW_TAG_const_type ]
!873 = metadata !{i32 786478, i32 0, metadata !863, metadata !"ap_bit_ref", metadata !"ap_bit_ref", metadata !"", metadata !295, i32 1202, metadata !874, i1 false, i1 false, i32 0, i32 0, null, i32 256, i1 false, null, null, i32 0, metadata !98, i32 1202} ; [ DW_TAG_subprogram ]
!874 = metadata !{i32 786453, i32 0, metadata !"", i32 0, i32 0, i64 0, i64 0, i64 0, i32 0, null, metadata !875, i32 0, i32 0} ; [ DW_TAG_subroutine_type ]
!875 = metadata !{null, metadata !870, metadata !876, metadata !150}
!876 = metadata !{i32 786447, null, metadata !"", null, i32 0, i64 64, i64 64, i64 0, i32 0, metadata !643} ; [ DW_TAG_pointer_type ]
!877 = metadata !{i32 786478, i32 0, metadata !863, metadata !"operator _Bool", metadata !"operator _Bool", metadata !"_ZNK10ap_bit_refILi32ELb1EEcvbEv", metadata !295, i32 1204, metadata !878, i1 false, i1 false, i32 0, i32 0, null, i32 256, i1 false, null, null, i32 0, metadata !98, i32 1204} ; [ DW_TAG_subprogram ]
!878 = metadata !{i32 786453, i32 0, metadata !"", i32 0, i32 0, i64 0, i64 0, i64 0, i32 0, null, metadata !879, i32 0, i32 0} ; [ DW_TAG_subroutine_type ]
!879 = metadata !{metadata !126, metadata !880}
!880 = metadata !{i32 786447, i32 0, metadata !"", i32 0, i32 0, i64 64, i64 64, i64 0, i32 64, metadata !872} ; [ DW_TAG_pointer_type ]
!881 = metadata !{i32 786478, i32 0, metadata !863, metadata !"to_bool", metadata !"to_bool", metadata !"_ZNK10ap_bit_refILi32ELb1EE7to_boolEv", metadata !295, i32 1205, metadata !878, i1 false, i1 false, i32 0, i32 0, null, i32 256, i1 false, null, null, i32 0, metadata !98, i32 1205} ; [ DW_TAG_subprogram ]
!882 = metadata !{i32 786478, i32 0, metadata !863, metadata !"operator=", metadata !"operator=", metadata !"_ZN10ap_bit_refILi32ELb1EEaSEy", metadata !295, i32 1207, metadata !883, i1 false, i1 false, i32 0, i32 0, null, i32 256, i1 false, null, null, i32 0, metadata !98, i32 1207} ; [ DW_TAG_subprogram ]
!883 = metadata !{i32 786453, i32 0, metadata !"", i32 0, i32 0, i64 0, i64 0, i64 0, i32 0, null, metadata !884, i32 0, i32 0} ; [ DW_TAG_subroutine_type ]
!884 = metadata !{metadata !885, metadata !870, metadata !428}
!885 = metadata !{i32 786448, null, null, null, i32 0, i64 0, i64 0, i64 0, i32 0, metadata !863} ; [ DW_TAG_reference_type ]
!886 = metadata !{i32 786478, i32 0, metadata !863, metadata !"operator=", metadata !"operator=", metadata !"_ZN10ap_bit_refILi32ELb1EEaSERKS0_", metadata !295, i32 1227, metadata !887, i1 false, i1 false, i32 0, i32 0, null, i32 256, i1 false, null, null, i32 0, metadata !98, i32 1227} ; [ DW_TAG_subprogram ]
!887 = metadata !{i32 786453, i32 0, metadata !"", i32 0, i32 0, i64 0, i64 0, i64 0, i32 0, null, metadata !888, i32 0, i32 0} ; [ DW_TAG_subroutine_type ]
!888 = metadata !{metadata !885, metadata !870, metadata !871}
!889 = metadata !{i32 786478, i32 0, metadata !863, metadata !"get", metadata !"get", metadata !"_ZNK10ap_bit_refILi32ELb1EE3getEv", metadata !295, i32 1335, metadata !878, i1 false, i1 false, i32 0, i32 0, null, i32 256, i1 false, null, null, i32 0, metadata !98, i32 1335} ; [ DW_TAG_subprogram ]
!890 = metadata !{i32 786478, i32 0, metadata !863, metadata !"get", metadata !"get", metadata !"_ZN10ap_bit_refILi32ELb1EE3getEv", metadata !295, i32 1339, metadata !891, i1 false, i1 false, i32 0, i32 0, null, i32 256, i1 false, null, null, i32 0, metadata !98, i32 1339} ; [ DW_TAG_subprogram ]
!891 = metadata !{i32 786453, i32 0, metadata !"", i32 0, i32 0, i64 0, i64 0, i64 0, i32 0, null, metadata !892, i32 0, i32 0} ; [ DW_TAG_subroutine_type ]
!892 = metadata !{metadata !126, metadata !870}
!893 = metadata !{i32 786478, i32 0, metadata !863, metadata !"operator~", metadata !"operator~", metadata !"_ZNK10ap_bit_refILi32ELb1EEcoEv", metadata !295, i32 1348, metadata !878, i1 false, i1 false, i32 0, i32 0, null, i32 256, i1 false, null, null, i32 0, metadata !98, i32 1348} ; [ DW_TAG_subprogram ]
!894 = metadata !{i32 786478, i32 0, metadata !863, metadata !"length", metadata !"length", metadata !"_ZNK10ap_bit_refILi32ELb1EE6lengthEv", metadata !295, i32 1353, metadata !895, i1 false, i1 false, i32 0, i32 0, null, i32 256, i1 false, null, null, i32 0, metadata !98, i32 1353} ; [ DW_TAG_subprogram ]
!895 = metadata !{i32 786453, i32 0, metadata !"", i32 0, i32 0, i64 0, i64 0, i64 0, i32 0, null, metadata !896, i32 0, i32 0} ; [ DW_TAG_subroutine_type ]
!896 = metadata !{metadata !150, metadata !880}
!897 = metadata !{metadata !898, metadata !350}
!898 = metadata !{i32 786480, null, metadata !"_AP_W", metadata !150, i64 32, null, i32 0, i32 0} ; [ DW_TAG_template_value_parameter ]
!899 = metadata !{i32 786478, i32 0, metadata !643, metadata !"operator[]", metadata !"operator[]", metadata !"_ZNK11ap_int_baseILi32ELb1ELb1EEixEi", metadata !295, i32 2058, metadata !824, i1 false, i1 false, i32 0, i32 0, null, i32 256, i1 false, null, null, i32 0, metadata !98, i32 2058} ; [ DW_TAG_subprogram ]
!900 = metadata !{i32 786478, i32 0, metadata !643, metadata !"bit", metadata !"bit", metadata !"_ZN11ap_int_baseILi32ELb1ELb1EE3bitEi", metadata !295, i32 2072, metadata !861, i1 false, i1 false, i32 0, i32 0, null, i32 256, i1 false, null, null, i32 0, metadata !98, i32 2072} ; [ DW_TAG_subprogram ]
!901 = metadata !{i32 786478, i32 0, metadata !643, metadata !"bit", metadata !"bit", metadata !"_ZNK11ap_int_baseILi32ELb1ELb1EE3bitEi", metadata !295, i32 2086, metadata !824, i1 false, i1 false, i32 0, i32 0, null, i32 256, i1 false, null, null, i32 0, metadata !98, i32 2086} ; [ DW_TAG_subprogram ]
!902 = metadata !{i32 786478, i32 0, metadata !643, metadata !"and_reduce", metadata !"and_reduce", metadata !"_ZN11ap_int_baseILi32ELb1ELb1EE10and_reduceEv", metadata !295, i32 2266, metadata !903, i1 false, i1 false, i32 0, i32 0, null, i32 256, i1 false, null, null, i32 0, metadata !98, i32 2266} ; [ DW_TAG_subprogram ]
!903 = metadata !{i32 786453, i32 0, metadata !"", i32 0, i32 0, i64 0, i64 0, i64 0, i32 0, null, metadata !904, i32 0, i32 0} ; [ DW_TAG_subroutine_type ]
!904 = metadata !{metadata !126, metadata !658}
!905 = metadata !{i32 786478, i32 0, metadata !643, metadata !"nand_reduce", metadata !"nand_reduce", metadata !"_ZN11ap_int_baseILi32ELb1ELb1EE11nand_reduceEv", metadata !295, i32 2269, metadata !903, i1 false, i1 false, i32 0, i32 0, null, i32 256, i1 false, null, null, i32 0, metadata !98, i32 2269} ; [ DW_TAG_subprogram ]
!906 = metadata !{i32 786478, i32 0, metadata !643, metadata !"or_reduce", metadata !"or_reduce", metadata !"_ZN11ap_int_baseILi32ELb1ELb1EE9or_reduceEv", metadata !295, i32 2272, metadata !903, i1 false, i1 false, i32 0, i32 0, null, i32 256, i1 false, null, null, i32 0, metadata !98, i32 2272} ; [ DW_TAG_subprogram ]
!907 = metadata !{i32 786478, i32 0, metadata !643, metadata !"nor_reduce", metadata !"nor_reduce", metadata !"_ZN11ap_int_baseILi32ELb1ELb1EE10nor_reduceEv", metadata !295, i32 2275, metadata !903, i1 false, i1 false, i32 0, i32 0, null, i32 256, i1 false, null, null, i32 0, metadata !98, i32 2275} ; [ DW_TAG_subprogram ]
!908 = metadata !{i32 786478, i32 0, metadata !643, metadata !"xor_reduce", metadata !"xor_reduce", metadata !"_ZN11ap_int_baseILi32ELb1ELb1EE10xor_reduceEv", metadata !295, i32 2278, metadata !903, i1 false, i1 false, i32 0, i32 0, null, i32 256, i1 false, null, null, i32 0, metadata !98, i32 2278} ; [ DW_TAG_subprogram ]
!909 = metadata !{i32 786478, i32 0, metadata !643, metadata !"xnor_reduce", metadata !"xnor_reduce", metadata !"_ZN11ap_int_baseILi32ELb1ELb1EE11xnor_reduceEv", metadata !295, i32 2281, metadata !903, i1 false, i1 false, i32 0, i32 0, null, i32 256, i1 false, null, null, i32 0, metadata !98, i32 2281} ; [ DW_TAG_subprogram ]
!910 = metadata !{i32 786478, i32 0, metadata !643, metadata !"and_reduce", metadata !"and_reduce", metadata !"_ZNK11ap_int_baseILi32ELb1ELb1EE10and_reduceEv", metadata !295, i32 2285, metadata !775, i1 false, i1 false, i32 0, i32 0, null, i32 256, i1 false, null, null, i32 0, metadata !98, i32 2285} ; [ DW_TAG_subprogram ]
!911 = metadata !{i32 786478, i32 0, metadata !643, metadata !"nand_reduce", metadata !"nand_reduce", metadata !"_ZNK11ap_int_baseILi32ELb1ELb1EE11nand_reduceEv", metadata !295, i32 2288, metadata !775, i1 false, i1 false, i32 0, i32 0, null, i32 256, i1 false, null, null, i32 0, metadata !98, i32 2288} ; [ DW_TAG_subprogram ]
!912 = metadata !{i32 786478, i32 0, metadata !643, metadata !"or_reduce", metadata !"or_reduce", metadata !"_ZNK11ap_int_baseILi32ELb1ELb1EE9or_reduceEv", metadata !295, i32 2291, metadata !775, i1 false, i1 false, i32 0, i32 0, null, i32 256, i1 false, null, null, i32 0, metadata !98, i32 2291} ; [ DW_TAG_subprogram ]
!913 = metadata !{i32 786478, i32 0, metadata !643, metadata !"nor_reduce", metadata !"nor_reduce", metadata !"_ZNK11ap_int_baseILi32ELb1ELb1EE10nor_reduceEv", metadata !295, i32 2294, metadata !775, i1 false, i1 false, i32 0, i32 0, null, i32 256, i1 false, null, null, i32 0, metadata !98, i32 2294} ; [ DW_TAG_subprogram ]
!914 = metadata !{i32 786478, i32 0, metadata !643, metadata !"xor_reduce", metadata !"xor_reduce", metadata !"_ZNK11ap_int_baseILi32ELb1ELb1EE10xor_reduceEv", metadata !295, i32 2297, metadata !775, i1 false, i1 false, i32 0, i32 0, null, i32 256, i1 false, null, null, i32 0, metadata !98, i32 2297} ; [ DW_TAG_subprogram ]
!915 = metadata !{i32 786478, i32 0, metadata !643, metadata !"xnor_reduce", metadata !"xnor_reduce", metadata !"_ZNK11ap_int_baseILi32ELb1ELb1EE11xnor_reduceEv", metadata !295, i32 2300, metadata !775, i1 false, i1 false, i32 0, i32 0, null, i32 256, i1 false, null, null, i32 0, metadata !98, i32 2300} ; [ DW_TAG_subprogram ]
!916 = metadata !{i32 786478, i32 0, metadata !643, metadata !"to_string", metadata !"to_string", metadata !"_ZNK11ap_int_baseILi32ELb1ELb1EE9to_stringEPci8BaseModeb", metadata !295, i32 2307, metadata !917, i1 false, i1 false, i32 0, i32 0, null, i32 256, i1 false, null, null, i32 0, metadata !98, i32 2307} ; [ DW_TAG_subprogram ]
!917 = metadata !{i32 786453, i32 0, metadata !"", i32 0, i32 0, i64 0, i64 0, i64 0, i32 0, null, metadata !918, i32 0, i32 0} ; [ DW_TAG_subroutine_type ]
!918 = metadata !{null, metadata !773, metadata !615, metadata !150, metadata !616, metadata !126}
!919 = metadata !{i32 786478, i32 0, metadata !643, metadata !"to_string", metadata !"to_string", metadata !"_ZNK11ap_int_baseILi32ELb1ELb1EE9to_stringE8BaseModeb", metadata !295, i32 2334, metadata !920, i1 false, i1 false, i32 0, i32 0, null, i32 256, i1 false, null, null, i32 0, metadata !98, i32 2334} ; [ DW_TAG_subprogram ]
!920 = metadata !{i32 786453, i32 0, metadata !"", i32 0, i32 0, i64 0, i64 0, i64 0, i32 0, null, metadata !921, i32 0, i32 0} ; [ DW_TAG_subroutine_type ]
!921 = metadata !{metadata !615, metadata !773, metadata !616, metadata !126}
!922 = metadata !{i32 786478, i32 0, metadata !643, metadata !"to_string", metadata !"to_string", metadata !"_ZNK11ap_int_baseILi32ELb1ELb1EE9to_stringEab", metadata !295, i32 2338, metadata !923, i1 false, i1 false, i32 0, i32 0, null, i32 256, i1 false, null, null, i32 0, metadata !98, i32 2338} ; [ DW_TAG_subprogram ]
!923 = metadata !{i32 786453, i32 0, metadata !"", i32 0, i32 0, i64 0, i64 0, i64 0, i32 0, null, metadata !924, i32 0, i32 0} ; [ DW_TAG_subroutine_type ]
!924 = metadata !{metadata !615, metadata !773, metadata !394, metadata !126}
!925 = metadata !{i32 786478, i32 0, metadata !643, metadata !"~ap_int_base", metadata !"~ap_int_base", metadata !"", metadata !295, i32 1398, metadata !656, i1 false, i1 false, i32 0, i32 0, null, i32 320, i1 false, null, null, i32 0, metadata !98, i32 1398} ; [ DW_TAG_subprogram ]
!926 = metadata !{metadata !898, metadata !350, metadata !631}
!927 = metadata !{i32 786478, i32 0, metadata !332, metadata !"ap_int_base<1, false>", metadata !"ap_int_base<1, false>", metadata !"", metadata !295, i32 1454, metadata !928, i1 false, i1 false, i32 0, i32 0, null, i32 256, i1 false, null, metadata !380, i32 0, metadata !98, i32 1454} ; [ DW_TAG_subprogram ]
!928 = metadata !{i32 786453, i32 0, metadata !"", i32 0, i32 0, i64 0, i64 0, i64 0, i32 0, null, metadata !929, i32 0, i32 0} ; [ DW_TAG_subroutine_type ]
!929 = metadata !{null, metadata !354, metadata !385}
!930 = metadata !{i32 786478, i32 0, metadata !332, metadata !"ap_int_base<33, true>", metadata !"ap_int_base<33, true>", metadata !"", metadata !295, i32 1454, metadata !931, i1 false, i1 false, i32 0, i32 0, null, i32 256, i1 false, null, metadata !635, i32 0, metadata !98, i32 1454} ; [ DW_TAG_subprogram ]
!931 = metadata !{i32 786453, i32 0, metadata !"", i32 0, i32 0, i64 0, i64 0, i64 0, i32 0, null, metadata !932, i32 0, i32 0} ; [ DW_TAG_subroutine_type ]
!932 = metadata !{null, metadata !354, metadata !933}
!933 = metadata !{i32 786448, null, null, null, i32 0, i64 0, i64 0, i64 0, i32 0, metadata !934} ; [ DW_TAG_reference_type ]
!934 = metadata !{i32 786470, null, metadata !"", null, i32 0, i64 0, i64 0, i64 0, i32 0, metadata !935} ; [ DW_TAG_const_type ]
!935 = metadata !{i32 786485, null, metadata !"", null, i32 0, i64 0, i64 0, i64 0, i32 0, metadata !332} ; [ DW_TAG_volatile_type ]
!936 = metadata !{i32 786478, i32 0, metadata !332, metadata !"ap_int_base<32, true>", metadata !"ap_int_base<32, true>", metadata !"", metadata !295, i32 1454, metadata !937, i1 false, i1 false, i32 0, i32 0, null, i32 256, i1 false, null, metadata !662, i32 0, metadata !98, i32 1454} ; [ DW_TAG_subprogram ]
!937 = metadata !{i32 786453, i32 0, metadata !"", i32 0, i32 0, i64 0, i64 0, i64 0, i32 0, null, metadata !938, i32 0, i32 0} ; [ DW_TAG_subroutine_type ]
!938 = metadata !{null, metadata !354, metadata !666}
!939 = metadata !{i32 786478, i32 0, metadata !332, metadata !"ap_int_base", metadata !"ap_int_base", metadata !"", metadata !295, i32 1461, metadata !940, i1 false, i1 false, i32 0, i32 0, null, i32 384, i1 false, null, null, i32 0, metadata !98, i32 1461} ; [ DW_TAG_subprogram ]
!940 = metadata !{i32 786453, i32 0, metadata !"", i32 0, i32 0, i64 0, i64 0, i64 0, i32 0, null, metadata !941, i32 0, i32 0} ; [ DW_TAG_subroutine_type ]
!941 = metadata !{null, metadata !354, metadata !126}
!942 = metadata !{i32 786478, i32 0, metadata !332, metadata !"ap_int_base", metadata !"ap_int_base", metadata !"", metadata !295, i32 1462, metadata !943, i1 false, i1 false, i32 0, i32 0, null, i32 384, i1 false, null, null, i32 0, metadata !98, i32 1462} ; [ DW_TAG_subprogram ]
!943 = metadata !{i32 786453, i32 0, metadata !"", i32 0, i32 0, i64 0, i64 0, i64 0, i32 0, null, metadata !944, i32 0, i32 0} ; [ DW_TAG_subroutine_type ]
!944 = metadata !{null, metadata !354, metadata !394}
!945 = metadata !{i32 786478, i32 0, metadata !332, metadata !"ap_int_base", metadata !"ap_int_base", metadata !"", metadata !295, i32 1463, metadata !946, i1 false, i1 false, i32 0, i32 0, null, i32 384, i1 false, null, null, i32 0, metadata !98, i32 1463} ; [ DW_TAG_subprogram ]
!946 = metadata !{i32 786453, i32 0, metadata !"", i32 0, i32 0, i64 0, i64 0, i64 0, i32 0, null, metadata !947, i32 0, i32 0} ; [ DW_TAG_subroutine_type ]
!947 = metadata !{null, metadata !354, metadata !93}
!948 = metadata !{i32 786478, i32 0, metadata !332, metadata !"ap_int_base", metadata !"ap_int_base", metadata !"", metadata !295, i32 1464, metadata !949, i1 false, i1 false, i32 0, i32 0, null, i32 384, i1 false, null, null, i32 0, metadata !98, i32 1464} ; [ DW_TAG_subprogram ]
!949 = metadata !{i32 786453, i32 0, metadata !"", i32 0, i32 0, i64 0, i64 0, i64 0, i32 0, null, metadata !950, i32 0, i32 0} ; [ DW_TAG_subroutine_type ]
!950 = metadata !{null, metadata !354, metadata !401}
!951 = metadata !{i32 786478, i32 0, metadata !332, metadata !"ap_int_base", metadata !"ap_int_base", metadata !"", metadata !295, i32 1465, metadata !952, i1 false, i1 false, i32 0, i32 0, null, i32 384, i1 false, null, null, i32 0, metadata !98, i32 1465} ; [ DW_TAG_subprogram ]
!952 = metadata !{i32 786453, i32 0, metadata !"", i32 0, i32 0, i64 0, i64 0, i64 0, i32 0, null, metadata !953, i32 0, i32 0} ; [ DW_TAG_subroutine_type ]
!953 = metadata !{null, metadata !354, metadata !198}
!954 = metadata !{i32 786478, i32 0, metadata !332, metadata !"ap_int_base", metadata !"ap_int_base", metadata !"", metadata !295, i32 1466, metadata !955, i1 false, i1 false, i32 0, i32 0, null, i32 384, i1 false, null, null, i32 0, metadata !98, i32 1466} ; [ DW_TAG_subprogram ]
!955 = metadata !{i32 786453, i32 0, metadata !"", i32 0, i32 0, i64 0, i64 0, i64 0, i32 0, null, metadata !956, i32 0, i32 0} ; [ DW_TAG_subroutine_type ]
!956 = metadata !{null, metadata !354, metadata !150}
!957 = metadata !{i32 786478, i32 0, metadata !332, metadata !"ap_int_base", metadata !"ap_int_base", metadata !"", metadata !295, i32 1467, metadata !958, i1 false, i1 false, i32 0, i32 0, null, i32 384, i1 false, null, null, i32 0, metadata !98, i32 1467} ; [ DW_TAG_subprogram ]
!958 = metadata !{i32 786453, i32 0, metadata !"", i32 0, i32 0, i64 0, i64 0, i64 0, i32 0, null, metadata !959, i32 0, i32 0} ; [ DW_TAG_subroutine_type ]
!959 = metadata !{null, metadata !354, metadata !143}
!960 = metadata !{i32 786478, i32 0, metadata !332, metadata !"ap_int_base", metadata !"ap_int_base", metadata !"", metadata !295, i32 1468, metadata !961, i1 false, i1 false, i32 0, i32 0, null, i32 384, i1 false, null, null, i32 0, metadata !98, i32 1468} ; [ DW_TAG_subprogram ]
!961 = metadata !{i32 786453, i32 0, metadata !"", i32 0, i32 0, i64 0, i64 0, i64 0, i32 0, null, metadata !962, i32 0, i32 0} ; [ DW_TAG_subroutine_type ]
!962 = metadata !{null, metadata !354, metadata !414}
!963 = metadata !{i32 786478, i32 0, metadata !332, metadata !"ap_int_base", metadata !"ap_int_base", metadata !"", metadata !295, i32 1469, metadata !964, i1 false, i1 false, i32 0, i32 0, null, i32 384, i1 false, null, null, i32 0, metadata !98, i32 1469} ; [ DW_TAG_subprogram ]
!964 = metadata !{i32 786453, i32 0, metadata !"", i32 0, i32 0, i64 0, i64 0, i64 0, i32 0, null, metadata !965, i32 0, i32 0} ; [ DW_TAG_subroutine_type ]
!965 = metadata !{null, metadata !354, metadata !418}
!966 = metadata !{i32 786478, i32 0, metadata !332, metadata !"ap_int_base", metadata !"ap_int_base", metadata !"", metadata !295, i32 1470, metadata !967, i1 false, i1 false, i32 0, i32 0, null, i32 384, i1 false, null, null, i32 0, metadata !98, i32 1470} ; [ DW_TAG_subprogram ]
!967 = metadata !{i32 786453, i32 0, metadata !"", i32 0, i32 0, i64 0, i64 0, i64 0, i32 0, null, metadata !968, i32 0, i32 0} ; [ DW_TAG_subroutine_type ]
!968 = metadata !{null, metadata !354, metadata !422}
!969 = metadata !{i32 786478, i32 0, metadata !332, metadata !"ap_int_base", metadata !"ap_int_base", metadata !"", metadata !295, i32 1471, metadata !970, i1 false, i1 false, i32 0, i32 0, null, i32 384, i1 false, null, null, i32 0, metadata !98, i32 1471} ; [ DW_TAG_subprogram ]
!970 = metadata !{i32 786453, i32 0, metadata !"", i32 0, i32 0, i64 0, i64 0, i64 0, i32 0, null, metadata !971, i32 0, i32 0} ; [ DW_TAG_subroutine_type ]
!971 = metadata !{null, metadata !354, metadata !427}
!972 = metadata !{i32 786478, i32 0, metadata !332, metadata !"ap_int_base", metadata !"ap_int_base", metadata !"", metadata !295, i32 1472, metadata !973, i1 false, i1 false, i32 0, i32 0, null, i32 384, i1 false, null, null, i32 0, metadata !98, i32 1472} ; [ DW_TAG_subprogram ]
!973 = metadata !{i32 786453, i32 0, metadata !"", i32 0, i32 0, i64 0, i64 0, i64 0, i32 0, null, metadata !974, i32 0, i32 0} ; [ DW_TAG_subroutine_type ]
!974 = metadata !{null, metadata !354, metadata !432}
!975 = metadata !{i32 786478, i32 0, metadata !332, metadata !"ap_int_base", metadata !"ap_int_base", metadata !"", metadata !295, i32 1473, metadata !976, i1 false, i1 false, i32 0, i32 0, null, i32 384, i1 false, null, null, i32 0, metadata !98, i32 1473} ; [ DW_TAG_subprogram ]
!976 = metadata !{i32 786453, i32 0, metadata !"", i32 0, i32 0, i64 0, i64 0, i64 0, i32 0, null, metadata !977, i32 0, i32 0} ; [ DW_TAG_subroutine_type ]
!977 = metadata !{null, metadata !354, metadata !437}
!978 = metadata !{i32 786478, i32 0, metadata !332, metadata !"ap_int_base", metadata !"ap_int_base", metadata !"", metadata !295, i32 1474, metadata !979, i1 false, i1 false, i32 0, i32 0, null, i32 384, i1 false, null, null, i32 0, metadata !98, i32 1474} ; [ DW_TAG_subprogram ]
!979 = metadata !{i32 786453, i32 0, metadata !"", i32 0, i32 0, i64 0, i64 0, i64 0, i32 0, null, metadata !980, i32 0, i32 0} ; [ DW_TAG_subroutine_type ]
!980 = metadata !{null, metadata !354, metadata !441}
!981 = metadata !{i32 786478, i32 0, metadata !332, metadata !"ap_int_base", metadata !"ap_int_base", metadata !"", metadata !295, i32 1501, metadata !982, i1 false, i1 false, i32 0, i32 0, null, i32 256, i1 false, null, null, i32 0, metadata !98, i32 1501} ; [ DW_TAG_subprogram ]
!982 = metadata !{i32 786453, i32 0, metadata !"", i32 0, i32 0, i64 0, i64 0, i64 0, i32 0, null, metadata !983, i32 0, i32 0} ; [ DW_TAG_subroutine_type ]
!983 = metadata !{null, metadata !354, metadata !103}
!984 = metadata !{i32 786478, i32 0, metadata !332, metadata !"ap_int_base", metadata !"ap_int_base", metadata !"", metadata !295, i32 1508, metadata !985, i1 false, i1 false, i32 0, i32 0, null, i32 256, i1 false, null, null, i32 0, metadata !98, i32 1508} ; [ DW_TAG_subprogram ]
!985 = metadata !{i32 786453, i32 0, metadata !"", i32 0, i32 0, i64 0, i64 0, i64 0, i32 0, null, metadata !986, i32 0, i32 0} ; [ DW_TAG_subroutine_type ]
!986 = metadata !{null, metadata !354, metadata !103, metadata !394}
!987 = metadata !{i32 786478, i32 0, metadata !332, metadata !"read", metadata !"read", metadata !"_ZNV11ap_int_baseILi33ELb1ELb1EE4readEv", metadata !295, i32 1529, metadata !988, i1 false, i1 false, i32 0, i32 0, null, i32 256, i1 false, null, null, i32 0, metadata !98, i32 1529} ; [ DW_TAG_subprogram ]
!988 = metadata !{i32 786453, i32 0, metadata !"", i32 0, i32 0, i64 0, i64 0, i64 0, i32 0, null, metadata !989, i32 0, i32 0} ; [ DW_TAG_subroutine_type ]
!989 = metadata !{metadata !332, metadata !990}
!990 = metadata !{i32 786447, i32 0, metadata !"", i32 0, i32 0, i64 64, i64 64, i64 0, i32 64, metadata !935} ; [ DW_TAG_pointer_type ]
!991 = metadata !{i32 786478, i32 0, metadata !332, metadata !"write", metadata !"write", metadata !"_ZNV11ap_int_baseILi33ELb1ELb1EE5writeERKS0_", metadata !295, i32 1535, metadata !992, i1 false, i1 false, i32 0, i32 0, null, i32 256, i1 false, null, null, i32 0, metadata !98, i32 1535} ; [ DW_TAG_subprogram ]
!992 = metadata !{i32 786453, i32 0, metadata !"", i32 0, i32 0, i64 0, i64 0, i64 0, i32 0, null, metadata !993, i32 0, i32 0} ; [ DW_TAG_subroutine_type ]
!993 = metadata !{null, metadata !990, metadata !330}
!994 = metadata !{i32 786478, i32 0, metadata !332, metadata !"operator=", metadata !"operator=", metadata !"_ZNV11ap_int_baseILi33ELb1ELb1EEaSERVKS0_", metadata !295, i32 1547, metadata !995, i1 false, i1 false, i32 0, i32 0, null, i32 256, i1 false, null, null, i32 0, metadata !98, i32 1547} ; [ DW_TAG_subprogram ]
!995 = metadata !{i32 786453, i32 0, metadata !"", i32 0, i32 0, i64 0, i64 0, i64 0, i32 0, null, metadata !996, i32 0, i32 0} ; [ DW_TAG_subroutine_type ]
!996 = metadata !{null, metadata !990, metadata !933}
!997 = metadata !{i32 786478, i32 0, metadata !332, metadata !"operator=", metadata !"operator=", metadata !"_ZNV11ap_int_baseILi33ELb1ELb1EEaSERKS0_", metadata !295, i32 1556, metadata !992, i1 false, i1 false, i32 0, i32 0, null, i32 256, i1 false, null, null, i32 0, metadata !98, i32 1556} ; [ DW_TAG_subprogram ]
!998 = metadata !{i32 786478, i32 0, metadata !332, metadata !"operator=", metadata !"operator=", metadata !"_ZN11ap_int_baseILi33ELb1ELb1EEaSERVKS0_", metadata !295, i32 1579, metadata !999, i1 false, i1 false, i32 0, i32 0, null, i32 256, i1 false, null, null, i32 0, metadata !98, i32 1579} ; [ DW_TAG_subprogram ]
!999 = metadata !{i32 786453, i32 0, metadata !"", i32 0, i32 0, i64 0, i64 0, i64 0, i32 0, null, metadata !1000, i32 0, i32 0} ; [ DW_TAG_subroutine_type ]
!1000 = metadata !{metadata !1001, metadata !354, metadata !933}
!1001 = metadata !{i32 786448, null, null, null, i32 0, i64 0, i64 0, i64 0, i32 0, metadata !332} ; [ DW_TAG_reference_type ]
!1002 = metadata !{i32 786478, i32 0, metadata !332, metadata !"operator=", metadata !"operator=", metadata !"_ZN11ap_int_baseILi33ELb1ELb1EEaSERKS0_", metadata !295, i32 1584, metadata !1003, i1 false, i1 false, i32 0, i32 0, null, i32 256, i1 false, null, null, i32 0, metadata !98, i32 1584} ; [ DW_TAG_subprogram ]
!1003 = metadata !{i32 786453, i32 0, metadata !"", i32 0, i32 0, i64 0, i64 0, i64 0, i32 0, null, metadata !1004, i32 0, i32 0} ; [ DW_TAG_subroutine_type ]
!1004 = metadata !{metadata !1001, metadata !354, metadata !330}
!1005 = metadata !{i32 786478, i32 0, metadata !332, metadata !"operator=", metadata !"operator=", metadata !"_ZN11ap_int_baseILi33ELb1ELb1EEaSEPKc", metadata !295, i32 1588, metadata !1006, i1 false, i1 false, i32 0, i32 0, null, i32 256, i1 false, null, null, i32 0, metadata !98, i32 1588} ; [ DW_TAG_subprogram ]
!1006 = metadata !{i32 786453, i32 0, metadata !"", i32 0, i32 0, i64 0, i64 0, i64 0, i32 0, null, metadata !1007, i32 0, i32 0} ; [ DW_TAG_subroutine_type ]
!1007 = metadata !{metadata !1001, metadata !354, metadata !103}
!1008 = metadata !{i32 786478, i32 0, metadata !332, metadata !"set", metadata !"set", metadata !"_ZN11ap_int_baseILi33ELb1ELb1EE3setEPKca", metadata !295, i32 1596, metadata !1009, i1 false, i1 false, i32 0, i32 0, null, i32 256, i1 false, null, null, i32 0, metadata !98, i32 1596} ; [ DW_TAG_subprogram ]
!1009 = metadata !{i32 786453, i32 0, metadata !"", i32 0, i32 0, i64 0, i64 0, i64 0, i32 0, null, metadata !1010, i32 0, i32 0} ; [ DW_TAG_subroutine_type ]
!1010 = metadata !{metadata !1001, metadata !354, metadata !103, metadata !394}
!1011 = metadata !{i32 786478, i32 0, metadata !332, metadata !"operator=", metadata !"operator=", metadata !"_ZN11ap_int_baseILi33ELb1ELb1EEaSEa", metadata !295, i32 1610, metadata !1012, i1 false, i1 false, i32 0, i32 0, null, i32 256, i1 false, null, null, i32 0, metadata !98, i32 1610} ; [ DW_TAG_subprogram ]
!1012 = metadata !{i32 786453, i32 0, metadata !"", i32 0, i32 0, i64 0, i64 0, i64 0, i32 0, null, metadata !1013, i32 0, i32 0} ; [ DW_TAG_subroutine_type ]
!1013 = metadata !{metadata !1001, metadata !354, metadata !394}
!1014 = metadata !{i32 786478, i32 0, metadata !332, metadata !"operator=", metadata !"operator=", metadata !"_ZN11ap_int_baseILi33ELb1ELb1EEaSEh", metadata !295, i32 1611, metadata !1015, i1 false, i1 false, i32 0, i32 0, null, i32 256, i1 false, null, null, i32 0, metadata !98, i32 1611} ; [ DW_TAG_subprogram ]
!1015 = metadata !{i32 786453, i32 0, metadata !"", i32 0, i32 0, i64 0, i64 0, i64 0, i32 0, null, metadata !1016, i32 0, i32 0} ; [ DW_TAG_subroutine_type ]
!1016 = metadata !{metadata !1001, metadata !354, metadata !93}
!1017 = metadata !{i32 786478, i32 0, metadata !332, metadata !"operator=", metadata !"operator=", metadata !"_ZN11ap_int_baseILi33ELb1ELb1EEaSEs", metadata !295, i32 1612, metadata !1018, i1 false, i1 false, i32 0, i32 0, null, i32 256, i1 false, null, null, i32 0, metadata !98, i32 1612} ; [ DW_TAG_subprogram ]
!1018 = metadata !{i32 786453, i32 0, metadata !"", i32 0, i32 0, i64 0, i64 0, i64 0, i32 0, null, metadata !1019, i32 0, i32 0} ; [ DW_TAG_subroutine_type ]
!1019 = metadata !{metadata !1001, metadata !354, metadata !401}
!1020 = metadata !{i32 786478, i32 0, metadata !332, metadata !"operator=", metadata !"operator=", metadata !"_ZN11ap_int_baseILi33ELb1ELb1EEaSEt", metadata !295, i32 1613, metadata !1021, i1 false, i1 false, i32 0, i32 0, null, i32 256, i1 false, null, null, i32 0, metadata !98, i32 1613} ; [ DW_TAG_subprogram ]
!1021 = metadata !{i32 786453, i32 0, metadata !"", i32 0, i32 0, i64 0, i64 0, i64 0, i32 0, null, metadata !1022, i32 0, i32 0} ; [ DW_TAG_subroutine_type ]
!1022 = metadata !{metadata !1001, metadata !354, metadata !198}
!1023 = metadata !{i32 786478, i32 0, metadata !332, metadata !"operator=", metadata !"operator=", metadata !"_ZN11ap_int_baseILi33ELb1ELb1EEaSEi", metadata !295, i32 1614, metadata !1024, i1 false, i1 false, i32 0, i32 0, null, i32 256, i1 false, null, null, i32 0, metadata !98, i32 1614} ; [ DW_TAG_subprogram ]
!1024 = metadata !{i32 786453, i32 0, metadata !"", i32 0, i32 0, i64 0, i64 0, i64 0, i32 0, null, metadata !1025, i32 0, i32 0} ; [ DW_TAG_subroutine_type ]
!1025 = metadata !{metadata !1001, metadata !354, metadata !150}
!1026 = metadata !{i32 786478, i32 0, metadata !332, metadata !"operator=", metadata !"operator=", metadata !"_ZN11ap_int_baseILi33ELb1ELb1EEaSEj", metadata !295, i32 1615, metadata !1027, i1 false, i1 false, i32 0, i32 0, null, i32 256, i1 false, null, null, i32 0, metadata !98, i32 1615} ; [ DW_TAG_subprogram ]
!1027 = metadata !{i32 786453, i32 0, metadata !"", i32 0, i32 0, i64 0, i64 0, i64 0, i32 0, null, metadata !1028, i32 0, i32 0} ; [ DW_TAG_subroutine_type ]
!1028 = metadata !{metadata !1001, metadata !354, metadata !143}
!1029 = metadata !{i32 786478, i32 0, metadata !332, metadata !"operator=", metadata !"operator=", metadata !"_ZN11ap_int_baseILi33ELb1ELb1EEaSEx", metadata !295, i32 1616, metadata !1030, i1 false, i1 false, i32 0, i32 0, null, i32 256, i1 false, null, null, i32 0, metadata !98, i32 1616} ; [ DW_TAG_subprogram ]
!1030 = metadata !{i32 786453, i32 0, metadata !"", i32 0, i32 0, i64 0, i64 0, i64 0, i32 0, null, metadata !1031, i32 0, i32 0} ; [ DW_TAG_subroutine_type ]
!1031 = metadata !{metadata !1001, metadata !354, metadata !422}
!1032 = metadata !{i32 786478, i32 0, metadata !332, metadata !"operator=", metadata !"operator=", metadata !"_ZN11ap_int_baseILi33ELb1ELb1EEaSEy", metadata !295, i32 1617, metadata !1033, i1 false, i1 false, i32 0, i32 0, null, i32 256, i1 false, null, null, i32 0, metadata !98, i32 1617} ; [ DW_TAG_subprogram ]
!1033 = metadata !{i32 786453, i32 0, metadata !"", i32 0, i32 0, i64 0, i64 0, i64 0, i32 0, null, metadata !1034, i32 0, i32 0} ; [ DW_TAG_subroutine_type ]
!1034 = metadata !{metadata !1001, metadata !354, metadata !427}
!1035 = metadata !{i32 786478, i32 0, metadata !332, metadata !"operator long long", metadata !"operator long long", metadata !"_ZNK11ap_int_baseILi33ELb1ELb1EEcvxEv", metadata !295, i32 1655, metadata !1036, i1 false, i1 false, i32 0, i32 0, null, i32 256, i1 false, null, null, i32 0, metadata !98, i32 1655} ; [ DW_TAG_subprogram ]
!1036 = metadata !{i32 786453, i32 0, metadata !"", i32 0, i32 0, i64 0, i64 0, i64 0, i32 0, null, metadata !1037, i32 0, i32 0} ; [ DW_TAG_subroutine_type ]
!1037 = metadata !{metadata !1038, metadata !1043}
!1038 = metadata !{i32 786454, metadata !332, metadata !"RetType", metadata !295, i32 1403, i64 0, i64 0, i64 0, i32 0, metadata !1039} ; [ DW_TAG_typedef ]
!1039 = metadata !{i32 786454, metadata !1040, metadata !"Type", metadata !295, i32 1360, i64 0, i64 0, i64 0, i32 0, metadata !422} ; [ DW_TAG_typedef ]
!1040 = metadata !{i32 786434, null, metadata !"retval<5, true>", metadata !295, i32 1359, i64 8, i64 8, i32 0, i32 0, null, metadata !502, i32 0, null, metadata !1041} ; [ DW_TAG_class_type ]
!1041 = metadata !{metadata !1042, metadata !350}
!1042 = metadata !{i32 786480, null, metadata !"_AP_N", metadata !150, i64 5, null, i32 0, i32 0} ; [ DW_TAG_template_value_parameter ]
!1043 = metadata !{i32 786447, i32 0, metadata !"", i32 0, i32 0, i64 64, i64 64, i64 0, i32 64, metadata !331} ; [ DW_TAG_pointer_type ]
!1044 = metadata !{i32 786478, i32 0, metadata !332, metadata !"to_bool", metadata !"to_bool", metadata !"_ZNK11ap_int_baseILi33ELb1ELb1EE7to_boolEv", metadata !295, i32 1661, metadata !1045, i1 false, i1 false, i32 0, i32 0, null, i32 256, i1 false, null, null, i32 0, metadata !98, i32 1661} ; [ DW_TAG_subprogram ]
!1045 = metadata !{i32 786453, i32 0, metadata !"", i32 0, i32 0, i64 0, i64 0, i64 0, i32 0, null, metadata !1046, i32 0, i32 0} ; [ DW_TAG_subroutine_type ]
!1046 = metadata !{metadata !126, metadata !1043}
!1047 = metadata !{i32 786478, i32 0, metadata !332, metadata !"to_uchar", metadata !"to_uchar", metadata !"_ZNK11ap_int_baseILi33ELb1ELb1EE8to_ucharEv", metadata !295, i32 1662, metadata !1048, i1 false, i1 false, i32 0, i32 0, null, i32 256, i1 false, null, null, i32 0, metadata !98, i32 1662} ; [ DW_TAG_subprogram ]
!1048 = metadata !{i32 786453, i32 0, metadata !"", i32 0, i32 0, i64 0, i64 0, i64 0, i32 0, null, metadata !1049, i32 0, i32 0} ; [ DW_TAG_subroutine_type ]
!1049 = metadata !{metadata !93, metadata !1043}
!1050 = metadata !{i32 786478, i32 0, metadata !332, metadata !"to_char", metadata !"to_char", metadata !"_ZNK11ap_int_baseILi33ELb1ELb1EE7to_charEv", metadata !295, i32 1663, metadata !1051, i1 false, i1 false, i32 0, i32 0, null, i32 256, i1 false, null, null, i32 0, metadata !98, i32 1663} ; [ DW_TAG_subprogram ]
!1051 = metadata !{i32 786453, i32 0, metadata !"", i32 0, i32 0, i64 0, i64 0, i64 0, i32 0, null, metadata !1052, i32 0, i32 0} ; [ DW_TAG_subroutine_type ]
!1052 = metadata !{metadata !394, metadata !1043}
!1053 = metadata !{i32 786478, i32 0, metadata !332, metadata !"to_ushort", metadata !"to_ushort", metadata !"_ZNK11ap_int_baseILi33ELb1ELb1EE9to_ushortEv", metadata !295, i32 1664, metadata !1054, i1 false, i1 false, i32 0, i32 0, null, i32 256, i1 false, null, null, i32 0, metadata !98, i32 1664} ; [ DW_TAG_subprogram ]
!1054 = metadata !{i32 786453, i32 0, metadata !"", i32 0, i32 0, i64 0, i64 0, i64 0, i32 0, null, metadata !1055, i32 0, i32 0} ; [ DW_TAG_subroutine_type ]
!1055 = metadata !{metadata !198, metadata !1043}
!1056 = metadata !{i32 786478, i32 0, metadata !332, metadata !"to_short", metadata !"to_short", metadata !"_ZNK11ap_int_baseILi33ELb1ELb1EE8to_shortEv", metadata !295, i32 1665, metadata !1057, i1 false, i1 false, i32 0, i32 0, null, i32 256, i1 false, null, null, i32 0, metadata !98, i32 1665} ; [ DW_TAG_subprogram ]
!1057 = metadata !{i32 786453, i32 0, metadata !"", i32 0, i32 0, i64 0, i64 0, i64 0, i32 0, null, metadata !1058, i32 0, i32 0} ; [ DW_TAG_subroutine_type ]
!1058 = metadata !{metadata !401, metadata !1043}
!1059 = metadata !{i32 786478, i32 0, metadata !332, metadata !"to_int", metadata !"to_int", metadata !"_ZNK11ap_int_baseILi33ELb1ELb1EE6to_intEv", metadata !295, i32 1666, metadata !1060, i1 false, i1 false, i32 0, i32 0, null, i32 256, i1 false, null, null, i32 0, metadata !98, i32 1666} ; [ DW_TAG_subprogram ]
!1060 = metadata !{i32 786453, i32 0, metadata !"", i32 0, i32 0, i64 0, i64 0, i64 0, i32 0, null, metadata !1061, i32 0, i32 0} ; [ DW_TAG_subroutine_type ]
!1061 = metadata !{metadata !150, metadata !1043}
!1062 = metadata !{i32 786478, i32 0, metadata !332, metadata !"to_uint", metadata !"to_uint", metadata !"_ZNK11ap_int_baseILi33ELb1ELb1EE7to_uintEv", metadata !295, i32 1667, metadata !1063, i1 false, i1 false, i32 0, i32 0, null, i32 256, i1 false, null, null, i32 0, metadata !98, i32 1667} ; [ DW_TAG_subprogram ]
!1063 = metadata !{i32 786453, i32 0, metadata !"", i32 0, i32 0, i64 0, i64 0, i64 0, i32 0, null, metadata !1064, i32 0, i32 0} ; [ DW_TAG_subroutine_type ]
!1064 = metadata !{metadata !143, metadata !1043}
!1065 = metadata !{i32 786478, i32 0, metadata !332, metadata !"to_long", metadata !"to_long", metadata !"_ZNK11ap_int_baseILi33ELb1ELb1EE7to_longEv", metadata !295, i32 1668, metadata !1066, i1 false, i1 false, i32 0, i32 0, null, i32 256, i1 false, null, null, i32 0, metadata !98, i32 1668} ; [ DW_TAG_subprogram ]
!1066 = metadata !{i32 786453, i32 0, metadata !"", i32 0, i32 0, i64 0, i64 0, i64 0, i32 0, null, metadata !1067, i32 0, i32 0} ; [ DW_TAG_subroutine_type ]
!1067 = metadata !{metadata !414, metadata !1043}
!1068 = metadata !{i32 786478, i32 0, metadata !332, metadata !"to_ulong", metadata !"to_ulong", metadata !"_ZNK11ap_int_baseILi33ELb1ELb1EE8to_ulongEv", metadata !295, i32 1669, metadata !1069, i1 false, i1 false, i32 0, i32 0, null, i32 256, i1 false, null, null, i32 0, metadata !98, i32 1669} ; [ DW_TAG_subprogram ]
!1069 = metadata !{i32 786453, i32 0, metadata !"", i32 0, i32 0, i64 0, i64 0, i64 0, i32 0, null, metadata !1070, i32 0, i32 0} ; [ DW_TAG_subroutine_type ]
!1070 = metadata !{metadata !418, metadata !1043}
!1071 = metadata !{i32 786478, i32 0, metadata !332, metadata !"to_int64", metadata !"to_int64", metadata !"_ZNK11ap_int_baseILi33ELb1ELb1EE8to_int64Ev", metadata !295, i32 1670, metadata !1072, i1 false, i1 false, i32 0, i32 0, null, i32 256, i1 false, null, null, i32 0, metadata !98, i32 1670} ; [ DW_TAG_subprogram ]
!1072 = metadata !{i32 786453, i32 0, metadata !"", i32 0, i32 0, i64 0, i64 0, i64 0, i32 0, null, metadata !1073, i32 0, i32 0} ; [ DW_TAG_subroutine_type ]
!1073 = metadata !{metadata !422, metadata !1043}
!1074 = metadata !{i32 786478, i32 0, metadata !332, metadata !"to_uint64", metadata !"to_uint64", metadata !"_ZNK11ap_int_baseILi33ELb1ELb1EE9to_uint64Ev", metadata !295, i32 1671, metadata !1075, i1 false, i1 false, i32 0, i32 0, null, i32 256, i1 false, null, null, i32 0, metadata !98, i32 1671} ; [ DW_TAG_subprogram ]
!1075 = metadata !{i32 786453, i32 0, metadata !"", i32 0, i32 0, i64 0, i64 0, i64 0, i32 0, null, metadata !1076, i32 0, i32 0} ; [ DW_TAG_subroutine_type ]
!1076 = metadata !{metadata !427, metadata !1043}
!1077 = metadata !{i32 786478, i32 0, metadata !332, metadata !"to_double", metadata !"to_double", metadata !"_ZNK11ap_int_baseILi33ELb1ELb1EE9to_doubleEv", metadata !295, i32 1672, metadata !1078, i1 false, i1 false, i32 0, i32 0, null, i32 256, i1 false, null, null, i32 0, metadata !98, i32 1672} ; [ DW_TAG_subprogram ]
!1078 = metadata !{i32 786453, i32 0, metadata !"", i32 0, i32 0, i64 0, i64 0, i64 0, i32 0, null, metadata !1079, i32 0, i32 0} ; [ DW_TAG_subroutine_type ]
!1079 = metadata !{metadata !441, metadata !1043}
!1080 = metadata !{i32 786478, i32 0, metadata !332, metadata !"length", metadata !"length", metadata !"_ZNK11ap_int_baseILi33ELb1ELb1EE6lengthEv", metadata !295, i32 1686, metadata !1060, i1 false, i1 false, i32 0, i32 0, null, i32 256, i1 false, null, null, i32 0, metadata !98, i32 1686} ; [ DW_TAG_subprogram ]
!1081 = metadata !{i32 786478, i32 0, metadata !332, metadata !"length", metadata !"length", metadata !"_ZNVK11ap_int_baseILi33ELb1ELb1EE6lengthEv", metadata !295, i32 1687, metadata !1082, i1 false, i1 false, i32 0, i32 0, null, i32 256, i1 false, null, null, i32 0, metadata !98, i32 1687} ; [ DW_TAG_subprogram ]
!1082 = metadata !{i32 786453, i32 0, metadata !"", i32 0, i32 0, i64 0, i64 0, i64 0, i32 0, null, metadata !1083, i32 0, i32 0} ; [ DW_TAG_subroutine_type ]
!1083 = metadata !{metadata !150, metadata !1084}
!1084 = metadata !{i32 786447, i32 0, metadata !"", i32 0, i32 0, i64 64, i64 64, i64 0, i32 64, metadata !934} ; [ DW_TAG_pointer_type ]
!1085 = metadata !{i32 786478, i32 0, metadata !332, metadata !"reverse", metadata !"reverse", metadata !"_ZN11ap_int_baseILi33ELb1ELb1EE7reverseEv", metadata !295, i32 1692, metadata !1086, i1 false, i1 false, i32 0, i32 0, null, i32 256, i1 false, null, null, i32 0, metadata !98, i32 1692} ; [ DW_TAG_subprogram ]
!1086 = metadata !{i32 786453, i32 0, metadata !"", i32 0, i32 0, i64 0, i64 0, i64 0, i32 0, null, metadata !1087, i32 0, i32 0} ; [ DW_TAG_subroutine_type ]
!1087 = metadata !{metadata !1001, metadata !354}
!1088 = metadata !{i32 786478, i32 0, metadata !332, metadata !"iszero", metadata !"iszero", metadata !"_ZNK11ap_int_baseILi33ELb1ELb1EE6iszeroEv", metadata !295, i32 1698, metadata !1045, i1 false, i1 false, i32 0, i32 0, null, i32 256, i1 false, null, null, i32 0, metadata !98, i32 1698} ; [ DW_TAG_subprogram ]
!1089 = metadata !{i32 786478, i32 0, metadata !332, metadata !"is_zero", metadata !"is_zero", metadata !"_ZNK11ap_int_baseILi33ELb1ELb1EE7is_zeroEv", metadata !295, i32 1703, metadata !1045, i1 false, i1 false, i32 0, i32 0, null, i32 256, i1 false, null, null, i32 0, metadata !98, i32 1703} ; [ DW_TAG_subprogram ]
!1090 = metadata !{i32 786478, i32 0, metadata !332, metadata !"sign", metadata !"sign", metadata !"_ZNK11ap_int_baseILi33ELb1ELb1EE4signEv", metadata !295, i32 1708, metadata !1045, i1 false, i1 false, i32 0, i32 0, null, i32 256, i1 false, null, null, i32 0, metadata !98, i32 1708} ; [ DW_TAG_subprogram ]
!1091 = metadata !{i32 786478, i32 0, metadata !332, metadata !"clear", metadata !"clear", metadata !"_ZN11ap_int_baseILi33ELb1ELb1EE5clearEi", metadata !295, i32 1716, metadata !955, i1 false, i1 false, i32 0, i32 0, null, i32 256, i1 false, null, null, i32 0, metadata !98, i32 1716} ; [ DW_TAG_subprogram ]
!1092 = metadata !{i32 786478, i32 0, metadata !332, metadata !"invert", metadata !"invert", metadata !"_ZN11ap_int_baseILi33ELb1ELb1EE6invertEi", metadata !295, i32 1722, metadata !955, i1 false, i1 false, i32 0, i32 0, null, i32 256, i1 false, null, null, i32 0, metadata !98, i32 1722} ; [ DW_TAG_subprogram ]
!1093 = metadata !{i32 786478, i32 0, metadata !332, metadata !"test", metadata !"test", metadata !"_ZNK11ap_int_baseILi33ELb1ELb1EE4testEi", metadata !295, i32 1730, metadata !1094, i1 false, i1 false, i32 0, i32 0, null, i32 256, i1 false, null, null, i32 0, metadata !98, i32 1730} ; [ DW_TAG_subprogram ]
!1094 = metadata !{i32 786453, i32 0, metadata !"", i32 0, i32 0, i64 0, i64 0, i64 0, i32 0, null, metadata !1095, i32 0, i32 0} ; [ DW_TAG_subroutine_type ]
!1095 = metadata !{metadata !126, metadata !1043, metadata !150}
!1096 = metadata !{i32 786478, i32 0, metadata !332, metadata !"set", metadata !"set", metadata !"_ZN11ap_int_baseILi33ELb1ELb1EE3setEi", metadata !295, i32 1736, metadata !955, i1 false, i1 false, i32 0, i32 0, null, i32 256, i1 false, null, null, i32 0, metadata !98, i32 1736} ; [ DW_TAG_subprogram ]
!1097 = metadata !{i32 786478, i32 0, metadata !332, metadata !"set", metadata !"set", metadata !"_ZN11ap_int_baseILi33ELb1ELb1EE3setEib", metadata !295, i32 1742, metadata !1098, i1 false, i1 false, i32 0, i32 0, null, i32 256, i1 false, null, null, i32 0, metadata !98, i32 1742} ; [ DW_TAG_subprogram ]
!1098 = metadata !{i32 786453, i32 0, metadata !"", i32 0, i32 0, i64 0, i64 0, i64 0, i32 0, null, metadata !1099, i32 0, i32 0} ; [ DW_TAG_subroutine_type ]
!1099 = metadata !{null, metadata !354, metadata !150, metadata !126}
!1100 = metadata !{i32 786478, i32 0, metadata !332, metadata !"lrotate", metadata !"lrotate", metadata !"_ZN11ap_int_baseILi33ELb1ELb1EE7lrotateEi", metadata !295, i32 1749, metadata !955, i1 false, i1 false, i32 0, i32 0, null, i32 256, i1 false, null, null, i32 0, metadata !98, i32 1749} ; [ DW_TAG_subprogram ]
!1101 = metadata !{i32 786478, i32 0, metadata !332, metadata !"rrotate", metadata !"rrotate", metadata !"_ZN11ap_int_baseILi33ELb1ELb1EE7rrotateEi", metadata !295, i32 1758, metadata !955, i1 false, i1 false, i32 0, i32 0, null, i32 256, i1 false, null, null, i32 0, metadata !98, i32 1758} ; [ DW_TAG_subprogram ]
!1102 = metadata !{i32 786478, i32 0, metadata !332, metadata !"set_bit", metadata !"set_bit", metadata !"_ZN11ap_int_baseILi33ELb1ELb1EE7set_bitEib", metadata !295, i32 1766, metadata !1098, i1 false, i1 false, i32 0, i32 0, null, i32 256, i1 false, null, null, i32 0, metadata !98, i32 1766} ; [ DW_TAG_subprogram ]
!1103 = metadata !{i32 786478, i32 0, metadata !332, metadata !"get_bit", metadata !"get_bit", metadata !"_ZNK11ap_int_baseILi33ELb1ELb1EE7get_bitEi", metadata !295, i32 1771, metadata !1094, i1 false, i1 false, i32 0, i32 0, null, i32 256, i1 false, null, null, i32 0, metadata !98, i32 1771} ; [ DW_TAG_subprogram ]
!1104 = metadata !{i32 786478, i32 0, metadata !332, metadata !"b_not", metadata !"b_not", metadata !"_ZN11ap_int_baseILi33ELb1ELb1EE5b_notEv", metadata !295, i32 1776, metadata !352, i1 false, i1 false, i32 0, i32 0, null, i32 256, i1 false, null, null, i32 0, metadata !98, i32 1776} ; [ DW_TAG_subprogram ]
!1105 = metadata !{i32 786478, i32 0, metadata !332, metadata !"countLeadingZeros", metadata !"countLeadingZeros", metadata !"_ZN11ap_int_baseILi33ELb1ELb1EE17countLeadingZerosEv", metadata !295, i32 1783, metadata !1106, i1 false, i1 false, i32 0, i32 0, null, i32 256, i1 false, null, null, i32 0, metadata !98, i32 1783} ; [ DW_TAG_subprogram ]
!1106 = metadata !{i32 786453, i32 0, metadata !"", i32 0, i32 0, i64 0, i64 0, i64 0, i32 0, null, metadata !1107, i32 0, i32 0} ; [ DW_TAG_subroutine_type ]
!1107 = metadata !{metadata !150, metadata !354}
!1108 = metadata !{i32 786478, i32 0, metadata !332, metadata !"operator++", metadata !"operator++", metadata !"_ZN11ap_int_baseILi33ELb1ELb1EEppEv", metadata !295, i32 1840, metadata !1086, i1 false, i1 false, i32 0, i32 0, null, i32 256, i1 false, null, null, i32 0, metadata !98, i32 1840} ; [ DW_TAG_subprogram ]
!1109 = metadata !{i32 786478, i32 0, metadata !332, metadata !"operator--", metadata !"operator--", metadata !"_ZN11ap_int_baseILi33ELb1ELb1EEmmEv", metadata !295, i32 1844, metadata !1086, i1 false, i1 false, i32 0, i32 0, null, i32 256, i1 false, null, null, i32 0, metadata !98, i32 1844} ; [ DW_TAG_subprogram ]
!1110 = metadata !{i32 786478, i32 0, metadata !332, metadata !"operator++", metadata !"operator++", metadata !"_ZN11ap_int_baseILi33ELb1ELb1EEppEi", metadata !295, i32 1852, metadata !1111, i1 false, i1 false, i32 0, i32 0, null, i32 256, i1 false, null, null, i32 0, metadata !98, i32 1852} ; [ DW_TAG_subprogram ]
!1111 = metadata !{i32 786453, i32 0, metadata !"", i32 0, i32 0, i64 0, i64 0, i64 0, i32 0, null, metadata !1112, i32 0, i32 0} ; [ DW_TAG_subroutine_type ]
!1112 = metadata !{metadata !331, metadata !354, metadata !150}
!1113 = metadata !{i32 786478, i32 0, metadata !332, metadata !"operator--", metadata !"operator--", metadata !"_ZN11ap_int_baseILi33ELb1ELb1EEmmEi", metadata !295, i32 1857, metadata !1111, i1 false, i1 false, i32 0, i32 0, null, i32 256, i1 false, null, null, i32 0, metadata !98, i32 1857} ; [ DW_TAG_subprogram ]
!1114 = metadata !{i32 786478, i32 0, metadata !332, metadata !"operator+", metadata !"operator+", metadata !"_ZNK11ap_int_baseILi33ELb1ELb1EEpsEv", metadata !295, i32 1866, metadata !1115, i1 false, i1 false, i32 0, i32 0, null, i32 256, i1 false, null, null, i32 0, metadata !98, i32 1866} ; [ DW_TAG_subprogram ]
!1115 = metadata !{i32 786453, i32 0, metadata !"", i32 0, i32 0, i64 0, i64 0, i64 0, i32 0, null, metadata !1116, i32 0, i32 0} ; [ DW_TAG_subroutine_type ]
!1116 = metadata !{metadata !332, metadata !1043}
!1117 = metadata !{i32 786478, i32 0, metadata !332, metadata !"operator!", metadata !"operator!", metadata !"_ZNK11ap_int_baseILi33ELb1ELb1EEntEv", metadata !295, i32 1872, metadata !1045, i1 false, i1 false, i32 0, i32 0, null, i32 256, i1 false, null, null, i32 0, metadata !98, i32 1872} ; [ DW_TAG_subprogram ]
!1118 = metadata !{i32 786478, i32 0, metadata !332, metadata !"operator-", metadata !"operator-", metadata !"_ZNK11ap_int_baseILi33ELb1ELb1EEngEv", metadata !295, i32 1877, metadata !1119, i1 false, i1 false, i32 0, i32 0, null, i32 256, i1 false, null, null, i32 0, metadata !98, i32 1877} ; [ DW_TAG_subprogram ]
!1119 = metadata !{i32 786453, i32 0, metadata !"", i32 0, i32 0, i64 0, i64 0, i64 0, i32 0, null, metadata !1120, i32 0, i32 0} ; [ DW_TAG_subroutine_type ]
!1120 = metadata !{metadata !1121, metadata !1043}
!1121 = metadata !{i32 786434, null, metadata !"ap_int_base<34, true, true>", metadata !295, i32 651, i32 0, i32 0, i32 0, i32 4, null, null, i32 0} ; [ DW_TAG_class_type ]
!1122 = metadata !{i32 786478, i32 0, metadata !332, metadata !"range", metadata !"range", metadata !"_ZN11ap_int_baseILi33ELb1ELb1EE5rangeEii", metadata !295, i32 2007, metadata !1123, i1 false, i1 false, i32 0, i32 0, null, i32 256, i1 false, null, null, i32 0, metadata !98, i32 2007} ; [ DW_TAG_subprogram ]
!1123 = metadata !{i32 786453, i32 0, metadata !"", i32 0, i32 0, i64 0, i64 0, i64 0, i32 0, null, metadata !1124, i32 0, i32 0} ; [ DW_TAG_subroutine_type ]
!1124 = metadata !{metadata !1125, metadata !354, metadata !150, metadata !150}
!1125 = metadata !{i32 786434, null, metadata !"ap_range_ref<33, true>", metadata !295, i32 924, i32 0, i32 0, i32 0, i32 4, null, null, i32 0} ; [ DW_TAG_class_type ]
!1126 = metadata !{i32 786478, i32 0, metadata !332, metadata !"operator()", metadata !"operator()", metadata !"_ZN11ap_int_baseILi33ELb1ELb1EEclEii", metadata !295, i32 2013, metadata !1123, i1 false, i1 false, i32 0, i32 0, null, i32 256, i1 false, null, null, i32 0, metadata !98, i32 2013} ; [ DW_TAG_subprogram ]
!1127 = metadata !{i32 786478, i32 0, metadata !332, metadata !"range", metadata !"range", metadata !"_ZNK11ap_int_baseILi33ELb1ELb1EE5rangeEii", metadata !295, i32 2019, metadata !1128, i1 false, i1 false, i32 0, i32 0, null, i32 256, i1 false, null, null, i32 0, metadata !98, i32 2019} ; [ DW_TAG_subprogram ]
!1128 = metadata !{i32 786453, i32 0, metadata !"", i32 0, i32 0, i64 0, i64 0, i64 0, i32 0, null, metadata !1129, i32 0, i32 0} ; [ DW_TAG_subroutine_type ]
!1129 = metadata !{metadata !1125, metadata !1043, metadata !150, metadata !150}
!1130 = metadata !{i32 786478, i32 0, metadata !332, metadata !"operator()", metadata !"operator()", metadata !"_ZNK11ap_int_baseILi33ELb1ELb1EEclEii", metadata !295, i32 2025, metadata !1128, i1 false, i1 false, i32 0, i32 0, null, i32 256, i1 false, null, null, i32 0, metadata !98, i32 2025} ; [ DW_TAG_subprogram ]
!1131 = metadata !{i32 786478, i32 0, metadata !332, metadata !"operator[]", metadata !"operator[]", metadata !"_ZN11ap_int_baseILi33ELb1ELb1EEixEi", metadata !295, i32 2044, metadata !1132, i1 false, i1 false, i32 0, i32 0, null, i32 256, i1 false, null, null, i32 0, metadata !98, i32 2044} ; [ DW_TAG_subprogram ]
!1132 = metadata !{i32 786453, i32 0, metadata !"", i32 0, i32 0, i64 0, i64 0, i64 0, i32 0, null, metadata !1133, i32 0, i32 0} ; [ DW_TAG_subroutine_type ]
!1133 = metadata !{metadata !1134, metadata !354, metadata !150}
!1134 = metadata !{i32 786434, null, metadata !"ap_bit_ref<33, true>", metadata !295, i32 1194, i64 128, i64 64, i32 0, i32 0, null, metadata !1135, i32 0, null, metadata !1168} ; [ DW_TAG_class_type ]
!1135 = metadata !{metadata !1136, metadata !1137, metadata !1138, metadata !1144, metadata !1148, metadata !1152, metadata !1153, metadata !1157, metadata !1160, metadata !1161, metadata !1164, metadata !1165}
!1136 = metadata !{i32 786445, metadata !1134, metadata !"d_bv", metadata !295, i32 1195, i64 64, i64 64, i64 0, i32 0, metadata !1001} ; [ DW_TAG_member ]
!1137 = metadata !{i32 786445, metadata !1134, metadata !"d_index", metadata !295, i32 1196, i64 32, i64 32, i64 64, i32 0, metadata !150} ; [ DW_TAG_member ]
!1138 = metadata !{i32 786478, i32 0, metadata !1134, metadata !"ap_bit_ref", metadata !"ap_bit_ref", metadata !"", metadata !295, i32 1199, metadata !1139, i1 false, i1 false, i32 0, i32 0, null, i32 256, i1 false, null, null, i32 0, metadata !98, i32 1199} ; [ DW_TAG_subprogram ]
!1139 = metadata !{i32 786453, i32 0, metadata !"", i32 0, i32 0, i64 0, i64 0, i64 0, i32 0, null, metadata !1140, i32 0, i32 0} ; [ DW_TAG_subroutine_type ]
!1140 = metadata !{null, metadata !1141, metadata !1142}
!1141 = metadata !{i32 786447, i32 0, metadata !"", i32 0, i32 0, i64 64, i64 64, i64 0, i32 64, metadata !1134} ; [ DW_TAG_pointer_type ]
!1142 = metadata !{i32 786448, null, null, null, i32 0, i64 0, i64 0, i64 0, i32 0, metadata !1143} ; [ DW_TAG_reference_type ]
!1143 = metadata !{i32 786470, null, metadata !"", null, i32 0, i64 0, i64 0, i64 0, i32 0, metadata !1134} ; [ DW_TAG_const_type ]
!1144 = metadata !{i32 786478, i32 0, metadata !1134, metadata !"ap_bit_ref", metadata !"ap_bit_ref", metadata !"", metadata !295, i32 1202, metadata !1145, i1 false, i1 false, i32 0, i32 0, null, i32 256, i1 false, null, null, i32 0, metadata !98, i32 1202} ; [ DW_TAG_subprogram ]
!1145 = metadata !{i32 786453, i32 0, metadata !"", i32 0, i32 0, i64 0, i64 0, i64 0, i32 0, null, metadata !1146, i32 0, i32 0} ; [ DW_TAG_subroutine_type ]
!1146 = metadata !{null, metadata !1141, metadata !1147, metadata !150}
!1147 = metadata !{i32 786447, null, metadata !"", null, i32 0, i64 64, i64 64, i64 0, i32 0, metadata !332} ; [ DW_TAG_pointer_type ]
!1148 = metadata !{i32 786478, i32 0, metadata !1134, metadata !"operator _Bool", metadata !"operator _Bool", metadata !"_ZNK10ap_bit_refILi33ELb1EEcvbEv", metadata !295, i32 1204, metadata !1149, i1 false, i1 false, i32 0, i32 0, null, i32 256, i1 false, null, null, i32 0, metadata !98, i32 1204} ; [ DW_TAG_subprogram ]
!1149 = metadata !{i32 786453, i32 0, metadata !"", i32 0, i32 0, i64 0, i64 0, i64 0, i32 0, null, metadata !1150, i32 0, i32 0} ; [ DW_TAG_subroutine_type ]
!1150 = metadata !{metadata !126, metadata !1151}
!1151 = metadata !{i32 786447, i32 0, metadata !"", i32 0, i32 0, i64 64, i64 64, i64 0, i32 64, metadata !1143} ; [ DW_TAG_pointer_type ]
!1152 = metadata !{i32 786478, i32 0, metadata !1134, metadata !"to_bool", metadata !"to_bool", metadata !"_ZNK10ap_bit_refILi33ELb1EE7to_boolEv", metadata !295, i32 1205, metadata !1149, i1 false, i1 false, i32 0, i32 0, null, i32 256, i1 false, null, null, i32 0, metadata !98, i32 1205} ; [ DW_TAG_subprogram ]
!1153 = metadata !{i32 786478, i32 0, metadata !1134, metadata !"operator=", metadata !"operator=", metadata !"_ZN10ap_bit_refILi33ELb1EEaSEy", metadata !295, i32 1207, metadata !1154, i1 false, i1 false, i32 0, i32 0, null, i32 256, i1 false, null, null, i32 0, metadata !98, i32 1207} ; [ DW_TAG_subprogram ]
!1154 = metadata !{i32 786453, i32 0, metadata !"", i32 0, i32 0, i64 0, i64 0, i64 0, i32 0, null, metadata !1155, i32 0, i32 0} ; [ DW_TAG_subroutine_type ]
!1155 = metadata !{metadata !1156, metadata !1141, metadata !428}
!1156 = metadata !{i32 786448, null, null, null, i32 0, i64 0, i64 0, i64 0, i32 0, metadata !1134} ; [ DW_TAG_reference_type ]
!1157 = metadata !{i32 786478, i32 0, metadata !1134, metadata !"operator=", metadata !"operator=", metadata !"_ZN10ap_bit_refILi33ELb1EEaSERKS0_", metadata !295, i32 1227, metadata !1158, i1 false, i1 false, i32 0, i32 0, null, i32 256, i1 false, null, null, i32 0, metadata !98, i32 1227} ; [ DW_TAG_subprogram ]
!1158 = metadata !{i32 786453, i32 0, metadata !"", i32 0, i32 0, i64 0, i64 0, i64 0, i32 0, null, metadata !1159, i32 0, i32 0} ; [ DW_TAG_subroutine_type ]
!1159 = metadata !{metadata !1156, metadata !1141, metadata !1142}
!1160 = metadata !{i32 786478, i32 0, metadata !1134, metadata !"get", metadata !"get", metadata !"_ZNK10ap_bit_refILi33ELb1EE3getEv", metadata !295, i32 1335, metadata !1149, i1 false, i1 false, i32 0, i32 0, null, i32 256, i1 false, null, null, i32 0, metadata !98, i32 1335} ; [ DW_TAG_subprogram ]
!1161 = metadata !{i32 786478, i32 0, metadata !1134, metadata !"get", metadata !"get", metadata !"_ZN10ap_bit_refILi33ELb1EE3getEv", metadata !295, i32 1339, metadata !1162, i1 false, i1 false, i32 0, i32 0, null, i32 256, i1 false, null, null, i32 0, metadata !98, i32 1339} ; [ DW_TAG_subprogram ]
!1162 = metadata !{i32 786453, i32 0, metadata !"", i32 0, i32 0, i64 0, i64 0, i64 0, i32 0, null, metadata !1163, i32 0, i32 0} ; [ DW_TAG_subroutine_type ]
!1163 = metadata !{metadata !126, metadata !1141}
!1164 = metadata !{i32 786478, i32 0, metadata !1134, metadata !"operator~", metadata !"operator~", metadata !"_ZNK10ap_bit_refILi33ELb1EEcoEv", metadata !295, i32 1348, metadata !1149, i1 false, i1 false, i32 0, i32 0, null, i32 256, i1 false, null, null, i32 0, metadata !98, i32 1348} ; [ DW_TAG_subprogram ]
!1165 = metadata !{i32 786478, i32 0, metadata !1134, metadata !"length", metadata !"length", metadata !"_ZNK10ap_bit_refILi33ELb1EE6lengthEv", metadata !295, i32 1353, metadata !1166, i1 false, i1 false, i32 0, i32 0, null, i32 256, i1 false, null, null, i32 0, metadata !98, i32 1353} ; [ DW_TAG_subprogram ]
!1166 = metadata !{i32 786453, i32 0, metadata !"", i32 0, i32 0, i64 0, i64 0, i64 0, i32 0, null, metadata !1167, i32 0, i32 0} ; [ DW_TAG_subroutine_type ]
!1167 = metadata !{metadata !150, metadata !1151}
!1168 = metadata !{metadata !1169, metadata !350}
!1169 = metadata !{i32 786480, null, metadata !"_AP_W", metadata !150, i64 33, null, i32 0, i32 0} ; [ DW_TAG_template_value_parameter ]
!1170 = metadata !{i32 786478, i32 0, metadata !332, metadata !"operator[]", metadata !"operator[]", metadata !"_ZNK11ap_int_baseILi33ELb1ELb1EEixEi", metadata !295, i32 2058, metadata !1094, i1 false, i1 false, i32 0, i32 0, null, i32 256, i1 false, null, null, i32 0, metadata !98, i32 2058} ; [ DW_TAG_subprogram ]
!1171 = metadata !{i32 786478, i32 0, metadata !332, metadata !"bit", metadata !"bit", metadata !"_ZN11ap_int_baseILi33ELb1ELb1EE3bitEi", metadata !295, i32 2072, metadata !1132, i1 false, i1 false, i32 0, i32 0, null, i32 256, i1 false, null, null, i32 0, metadata !98, i32 2072} ; [ DW_TAG_subprogram ]
!1172 = metadata !{i32 786478, i32 0, metadata !332, metadata !"bit", metadata !"bit", metadata !"_ZNK11ap_int_baseILi33ELb1ELb1EE3bitEi", metadata !295, i32 2086, metadata !1094, i1 false, i1 false, i32 0, i32 0, null, i32 256, i1 false, null, null, i32 0, metadata !98, i32 2086} ; [ DW_TAG_subprogram ]
!1173 = metadata !{i32 786478, i32 0, metadata !332, metadata !"and_reduce", metadata !"and_reduce", metadata !"_ZN11ap_int_baseILi33ELb1ELb1EE10and_reduceEv", metadata !295, i32 2266, metadata !1174, i1 false, i1 false, i32 0, i32 0, null, i32 256, i1 false, null, null, i32 0, metadata !98, i32 2266} ; [ DW_TAG_subprogram ]
!1174 = metadata !{i32 786453, i32 0, metadata !"", i32 0, i32 0, i64 0, i64 0, i64 0, i32 0, null, metadata !1175, i32 0, i32 0} ; [ DW_TAG_subroutine_type ]
!1175 = metadata !{metadata !126, metadata !354}
!1176 = metadata !{i32 786478, i32 0, metadata !332, metadata !"nand_reduce", metadata !"nand_reduce", metadata !"_ZN11ap_int_baseILi33ELb1ELb1EE11nand_reduceEv", metadata !295, i32 2269, metadata !1174, i1 false, i1 false, i32 0, i32 0, null, i32 256, i1 false, null, null, i32 0, metadata !98, i32 2269} ; [ DW_TAG_subprogram ]
!1177 = metadata !{i32 786478, i32 0, metadata !332, metadata !"or_reduce", metadata !"or_reduce", metadata !"_ZN11ap_int_baseILi33ELb1ELb1EE9or_reduceEv", metadata !295, i32 2272, metadata !1174, i1 false, i1 false, i32 0, i32 0, null, i32 256, i1 false, null, null, i32 0, metadata !98, i32 2272} ; [ DW_TAG_subprogram ]
!1178 = metadata !{i32 786478, i32 0, metadata !332, metadata !"nor_reduce", metadata !"nor_reduce", metadata !"_ZN11ap_int_baseILi33ELb1ELb1EE10nor_reduceEv", metadata !295, i32 2275, metadata !1174, i1 false, i1 false, i32 0, i32 0, null, i32 256, i1 false, null, null, i32 0, metadata !98, i32 2275} ; [ DW_TAG_subprogram ]
!1179 = metadata !{i32 786478, i32 0, metadata !332, metadata !"xor_reduce", metadata !"xor_reduce", metadata !"_ZN11ap_int_baseILi33ELb1ELb1EE10xor_reduceEv", metadata !295, i32 2278, metadata !1174, i1 false, i1 false, i32 0, i32 0, null, i32 256, i1 false, null, null, i32 0, metadata !98, i32 2278} ; [ DW_TAG_subprogram ]
